                        .module LCD.c
                        .area text(rom, con, rel)
 0000                   .dbfile LCD.c
                        .area data(ram, con, rel)
 0000                   .dbfile LCD.c
 0000           _t::
 0000                   .blkb 2
                        .area idata
 0000 0000              .word 0
                        .area data(ram, con, rel)
 0002                   .dbfile LCD.c
 0002                   .blkb 2
                        .area idata
 0002 BC03              .word 956
                        .area data(ram, con, rel)
 0004                   .dbfile LCD.c
 0004                   .blkb 2
                        .area idata
 0004 6103              .word 865
                        .area data(ram, con, rel)
 0006                   .dbfile LCD.c
 0006                   .blkb 2
                        .area idata
 0006 F702              .word 759
                        .area data(ram, con, rel)
 0008                   .dbfile LCD.c
 0008                   .blkb 2
                        .area idata
 0008 CC02              .word 716
                        .area data(ram, con, rel)
 000A                   .dbfile LCD.c
 000A                   .blkb 2
                        .area idata
 000A 7E02              .word 638
                        .area data(ram, con, rel)
 000C                   .dbfile LCD.c
 000C                   .blkb 2
                        .area idata
 000C 3802              .word 568
                        .area data(ram, con, rel)
 000E                   .dbfile LCD.c
 000E                   .blkb 2
                        .area idata
 000E FA01              .word 506
                        .area data(ram, con, rel)
 0010                   .dbfile LCD.c
 0010                   .blkb 2
                        .area idata
 0010 D601              .word 470
                        .area data(ram, con, rel)
 0012                   .dbfile LCD.c
 0012                   .dbfile C:\Users\ASUS\Desktop\AircraftWar\LCD.c
 0012                   .dbsym e t _t A[18:9]i
 0012           _d::
 0012                   .blkb 2
                        .area idata
 0012 0069              .byte 0,'i
                        .area data(ram, con, rel)
 0014                   .dbfile C:\Users\ASUS\Desktop\AircraftWar\LCD.c
 0014                   .blkb 2
                        .area idata
 0014 7484              .byte 't,132
                        .area data(ram, con, rel)
 0016                   .dbfile C:\Users\ASUS\Desktop\AircraftWar\LCD.c
 0016                   .blkb 2
                        .area idata
 0016 8C9D              .byte 140,157
                        .area data(ram, con, rel)
 0018                   .dbfile C:\Users\ASUS\Desktop\AircraftWar\LCD.c
 0018                   .blkb 2
                        .area idata
 0018 B0C6              .byte 176,198
                        .area data(ram, con, rel)
 001A                   .dbfile C:\Users\ASUS\Desktop\AircraftWar\LCD.c
 001A                   .blkb 1
                        .area idata
 001A D1                .byte 209
                        .area data(ram, con, rel)
 001B                   .dbfile C:\Users\ASUS\Desktop\AircraftWar\LCD.c
 001B                   .dbsym e d _d A[9:9]c
 001B           _note_n::
 001B                   .blkb 1
                        .area idata
 001B 00                .byte 0
                        .area data(ram, con, rel)
 001C                   .dbfile C:\Users\ASUS\Desktop\AircraftWar\LCD.c
 001C                   .dbsym e note_n _note_n c
 001C           _int_n::
 001C                   .blkb 2
                        .area idata
 001C 0100              .word 1
                        .area data(ram, con, rel)
 001E                   .dbfile C:\Users\ASUS\Desktop\AircraftWar\LCD.c
 001E                   .dbsym e int_n _int_n i
 001E           _sound_flag::
 001E                   .blkb 1
                        .area idata
 001E 00                .byte 0
                        .area data(ram, con, rel)
 001F                   .dbfile C:\Users\ASUS\Desktop\AircraftWar\LCD.c
 001F                   .dbsym e sound_flag _sound_flag c
 001F           _flag::
 001F                   .blkb 1
                        .area idata
 001F 00                .byte 0
                        .area data(ram, con, rel)
 0020                   .dbfile C:\Users\ASUS\Desktop\AircraftWar\LCD.c
 0020                   .dbsym e flag _flag c
                        .area lit(rom, con, rel)
 0000           _music1::
 0000 0302              .byte 3,2
 0002 0302              .byte 3,2
 0004 0302              .byte 3,2
 0006 0101              .byte 1,1
 0008 0301              .byte 3,1
 000A 0502              .byte 5,2
 000C 0502              .byte 5,2
 000E 0101              .byte 1,1
 0010 0501              .byte 5,1
 0012 0302              .byte 3,2
 0014 0602              .byte 6,2
 0016 0702              .byte 7,2
 0018 0701              .byte 7,1
 001A 0602              .byte 6,2
 001C 0502              .byte 5,2
 001E 0302              .byte 3,2
 0020 0501              .byte 5,1
 0022 0601              .byte 6,1
 0024 0401              .byte 4,1
 0026 0501              .byte 5,1
 0028 0301              .byte 3,1
 002A 0101              .byte 1,1
 002C 0201              .byte 2,1
 002E 0702              .byte 7,2
 0030 0102              .byte 1,2
 0032 0501              .byte 5,1
 0034 0301              .byte 3,1
 0036 0602              .byte 6,2
 0038 0701              .byte 7,1
 003A 0701              .byte 7,1
 003C 0602              .byte 6,2
 003E 0501              .byte 5,1
 0040 0302              .byte 3,2
 0042 0502              .byte 5,2
 0044 0602              .byte 6,2
 0046 0402              .byte 4,2
 0048 0502              .byte 5,2
 004A 0302              .byte 3,2
 004C 0201              .byte 2,1
 004E 0101              .byte 1,1
 0050 0704              .byte 7,4
 0052 0502              .byte 5,2
 0054 0401              .byte 4,1
 0056 0401              .byte 4,1
 0058 0302              .byte 3,2
 005A 0302              .byte 3,2
 005C 0501              .byte 5,1
 005E 0602              .byte 6,2
 0060 0102              .byte 1,2
 0062 0601              .byte 6,1
 0064 0101              .byte 1,1
 0066 0202              .byte 2,2
 0068 0501              .byte 5,1
 006A 0401              .byte 4,1
 006C 0402              .byte 4,2
 006E 0302              .byte 3,2
 0070 0302              .byte 3,2
 0072 0102              .byte 1,2
 0074 0102              .byte 1,2
 0076 0102              .byte 1,2
 0078 0501              .byte 5,1
 007A 0401              .byte 4,1
 007C 0401              .byte 4,1
 007E 0302              .byte 3,2
 0080 0301              .byte 3,1
 0082 0004              .byte 0,4
 0084 0004              .byte 0,4
 0086 0004              .byte 0,4
 0088 0002              .byte 0,2
 008A 0601              .byte 6,1
 008C 0601              .byte 6,1
 008E 0701              .byte 7,1
 0090 0701              .byte 7,1
 0092 0101              .byte 1,1
 0094 0101              .byte 1,1
 0096 0701              .byte 7,1
 0098 0701              .byte 7,1
 009A 0601              .byte 6,1
 009C 0601              .byte 6,1
 009E 0301              .byte 3,1
 00A0 0301              .byte 3,1
 00A2 0101              .byte 1,1
 00A4 0101              .byte 1,1
 00A6 0601              .byte 6,1
 00A8 0601              .byte 6,1
 00AA 0501              .byte 5,1
 00AC 0501              .byte 5,1
 00AE 0401              .byte 4,1
 00B0 0401              .byte 4,1
 00B2 0301              .byte 3,1
 00B4 0401              .byte 4,1
 00B6 0501              .byte 5,1
 00B8 0402              .byte 4,2
 00BA 0404              .byte 4,4
 00BC 0001              .byte 0,1
 00BE 0401              .byte 4,1
 00C0 0401              .byte 4,1
 00C2 0501              .byte 5,1
 00C4 0501              .byte 5,1
 00C6 0601              .byte 6,1
 00C8 0601              .byte 6,1
 00CA 0701              .byte 7,1
 00CC 0701              .byte 7,1
 00CE 0501              .byte 5,1
 00D0 0501              .byte 5,1
 00D2 0201              .byte 2,1
 00D4 0201              .byte 2,1
 00D6 0401              .byte 4,1
 00D8 0401              .byte 4,1
 00DA 0301              .byte 3,1
 00DC 0301              .byte 3,1
 00DE 0201              .byte 2,1
 00E0 0301              .byte 3,1
 00E2 0401              .byte 4,1
 00E4 0302              .byte 3,2
 00E6 0302              .byte 3,2
 00E8 0301              .byte 3,1
 00EA 0304              .byte 3,4
 00EC 0302              .byte 3,2
 00EE 0601              .byte 6,1
 00F0 0101              .byte 1,1
 00F2 0301              .byte 3,1
 00F4 0201              .byte 2,1
 00F6 0302              .byte 3,2
 00F8 0601              .byte 6,1
 00FA 0101              .byte 1,1
 00FC 0301              .byte 3,1
 00FE 0201              .byte 2,1
 0100 0302              .byte 3,2
 0102 0601              .byte 6,1
 0104 0101              .byte 1,1
 0106 0401              .byte 4,1
 0108 0301              .byte 3,1
 010A 0402              .byte 4,2
 010C 0601              .byte 6,1
 010E 0101              .byte 1,1
 0110 0401              .byte 4,1
 0112 0301              .byte 3,1
 0114 0402              .byte 4,2
 0116 0401              .byte 4,1
 0118 0301              .byte 3,1
 011A 0401              .byte 4,1
 011C 0401              .byte 4,1
 011E 0502              .byte 5,2
 0120 0501              .byte 5,1
 0122 0601              .byte 6,1
 0124 0501              .byte 5,1
 0126 0601              .byte 6,1
 0128 0304              .byte 3,4
 012A 0302              .byte 3,2
 012C 0601              .byte 6,1
 012E 0101              .byte 1,1
 0130 0301              .byte 3,1
 0132 0201              .byte 2,1
 0134 0302              .byte 3,2
 0136 0601              .byte 6,1
 0138 0101              .byte 1,1
 013A 0301              .byte 3,1
 013C 0201              .byte 2,1
 013E 0302              .byte 3,2
 0140 0601              .byte 6,1
 0142 0101              .byte 1,1
 0144 0401              .byte 4,1
 0146 0301              .byte 3,1
 0148 0402              .byte 4,2
 014A 0601              .byte 6,1
 014C 0101              .byte 1,1
 014E 0401              .byte 4,1
 0150 0301              .byte 3,1
 0152 0402              .byte 4,2
 0154 0401              .byte 4,1
 0156 0301              .byte 3,1
 0158 0401              .byte 4,1
 015A 0401              .byte 4,1
 015C 0502              .byte 5,2
 015E 0501              .byte 5,1
 0160 0601              .byte 6,1
 0162 0501              .byte 5,1
 0164 0601              .byte 6,1
 0166 0304              .byte 3,4
 0168 0102              .byte 1,2
 016A 0301              .byte 3,1
 016C 0301              .byte 3,1
 016E 0401              .byte 4,1
 0170 0402              .byte 4,2
 0172 0201              .byte 2,1
 0174 0201              .byte 2,1
 0176 0701              .byte 7,1
 0178 0702              .byte 7,2
 017A 0201              .byte 2,1
 017C 0201              .byte 2,1
 017E 0301              .byte 3,1
 0180 0302              .byte 3,2
 0182 0101              .byte 1,1
 0184 0101              .byte 1,1
 0186 0601              .byte 6,1
 0188 0501              .byte 5,1
 018A 0602              .byte 6,2
 018C 0101              .byte 1,1
 018E 0101              .byte 1,1
 0190 0201              .byte 2,1
 0192 0202              .byte 2,2
 0194 0701              .byte 7,1
 0196 0301              .byte 3,1
 0198 0201              .byte 2,1
 019A 0304              .byte 3,4
 019C 000000000000000000000000000000000000000000000000000000000000000000000000000000000000000000000000000000000000000000000000  .word 0,0,0,0,0,0,0,0,0,0,0,0,0,0,0,0,0,0,0,0,0,0,0,0,0,0,0,0,0,0
 01D8 00000000000000000000      .word 0,0,0,0,0
 01E2 00000000000000000000      .word 0,0,0,0,0
 01EC 0000000000000000  .byte 0,0,0,0,0,0,0,0
 01F4                   .dbsym e music1 _music1 A[500:500]kc
 01F4           _music2::
 01F4 0402              .byte 4,2
 01F6 0302              .byte 3,2
 01F8 0402              .byte 4,2
 01FA 0602              .byte 6,2
 01FC 0304              .byte 3,4
 01FE 0304              .byte 3,4
 0200 0202              .byte 2,2
 0202 0102              .byte 1,2
 0204 0202              .byte 2,2
 0206 0402              .byte 4,2
 0208 0104              .byte 1,4
 020A 0104              .byte 1,4
 020C 0702              .byte 7,2
 020E 0602              .byte 6,2
 0210 0702              .byte 7,2
 0212 0402              .byte 4,2
 0214 0304              .byte 3,4
 0216 0104              .byte 1,4
 0218 0202              .byte 2,2
 021A 0302              .byte 3,2
 021C 0402              .byte 4,2
 021E 0602              .byte 6,2
 0220 0504              .byte 5,4
 0222 0504              .byte 5,4
 0224 0402              .byte 4,2
 0226 0302              .byte 3,2
 0228 0402              .byte 4,2
 022A 0602              .byte 6,2
 022C 0304              .byte 3,4
 022E 0104              .byte 1,4
 0230 0202              .byte 2,2
 0232 0302              .byte 3,2
 0234 0402              .byte 4,2
 0236 0502              .byte 5,2
 0238 0604              .byte 6,4
 023A 0604              .byte 6,4
 023C 0702              .byte 7,2
 023E 0602              .byte 6,2
 0240 0502              .byte 5,2
 0242 0402              .byte 4,2
 0244 0302              .byte 3,2
 0246 0602              .byte 6,2
 0248 0102              .byte 1,2
 024A 0302              .byte 3,2
 024C 0204              .byte 2,4
 024E 0204              .byte 2,4
 0250 0204              .byte 2,4
 0252 0004              .byte 0,4
 0254 0402              .byte 4,2
 0256 0302              .byte 3,2
 0258 0402              .byte 4,2
 025A 0602              .byte 6,2
 025C 0304              .byte 3,4
 025E 0304              .byte 3,4
 0260 0202              .byte 2,2
 0262 0102              .byte 1,2
 0264 0202              .byte 2,2
 0266 0402              .byte 4,2
 0268 0104              .byte 1,4
 026A 0104              .byte 1,4
 026C 0702              .byte 7,2
 026E 0602              .byte 6,2
 0270 0702              .byte 7,2
 0272 0402              .byte 4,2
 0274 0304              .byte 3,4
 0276 0104              .byte 1,4
 0278 0202              .byte 2,2
 027A 0302              .byte 3,2
 027C 0402              .byte 4,2
 027E 0602              .byte 6,2
 0280 0504              .byte 5,4
 0282 0504              .byte 5,4
 0284 0402              .byte 4,2
 0286 0302              .byte 3,2
 0288 0402              .byte 4,2
 028A 0602              .byte 6,2
 028C 0304              .byte 3,4
 028E 0104              .byte 1,4
 0290 0202              .byte 2,2
 0292 0302              .byte 3,2
 0294 0402              .byte 4,2
 0296 0502              .byte 5,2
 0298 0604              .byte 6,4
 029A 0604              .byte 6,4
 029C 0702              .byte 7,2
 029E 0602              .byte 6,2
 02A0 0502              .byte 5,2
 02A2 0402              .byte 4,2
 02A4 0302              .byte 3,2
 02A6 0602              .byte 6,2
 02A8 0102              .byte 1,2
 02AA 0302              .byte 3,2
 02AC 0204              .byte 2,4
 02AE 0204              .byte 2,4
 02B0 0204              .byte 2,4
 02B2 0604              .byte 6,4
 02B4 0504              .byte 5,4
 02B6 0104              .byte 1,4
 02B8 0704              .byte 7,4
 02BA 0604              .byte 6,4
 02BC 0504              .byte 5,4
 02BE 0304              .byte 3,4
 02C0 0304              .byte 3,4
 02C2 0002              .byte 0,2
 02C4 0302              .byte 3,2
 02C6 0402              .byte 4,2
 02C8 0202              .byte 2,2
 02CA 0204              .byte 2,4
 02CC 0204              .byte 2,4
 02CE 0204              .byte 2,4
 02D0 0004              .byte 0,4
 02D2 0704              .byte 7,4
 02D4 0104              .byte 1,4
 02D6 0202              .byte 2,2
 02D8 0404              .byte 4,4
 02DA 0304              .byte 3,4
 02DC 0404              .byte 4,4
 02DE 0502              .byte 5,2
 02E0 0704              .byte 7,4
 02E2 0602              .byte 6,2
 02E4 0604              .byte 6,4
 02E6 0604              .byte 6,4
 02E8 0604              .byte 6,4
 02EA 0004              .byte 0,4
 02EC 0004              .byte 0,4
 02EE 0004              .byte 0,4
 02F0 0004              .byte 0,4
 02F2 0004              .byte 0,4
 02F4 0402              .byte 4,2
 02F6 0302              .byte 3,2
 02F8 0402              .byte 4,2
 02FA 0602              .byte 6,2
 02FC 0304              .byte 3,4
 02FE 0304              .byte 3,4
 0300 0202              .byte 2,2
 0302 0102              .byte 1,2
 0304 0202              .byte 2,2
 0306 0402              .byte 4,2
 0308 0104              .byte 1,4
 030A 0104              .byte 1,4
 030C 0702              .byte 7,2
 030E 0602              .byte 6,2
 0310 0702              .byte 7,2
 0312 0402              .byte 4,2
 0314 0304              .byte 3,4
 0316 0104              .byte 1,4
 0318 0202              .byte 2,2
 031A 0302              .byte 3,2
 031C 0402              .byte 4,2
 031E 0602              .byte 6,2
 0320 0504              .byte 5,4
 0322 0504              .byte 5,4
 0324 0402              .byte 4,2
 0326 0302              .byte 3,2
 0328 0402              .byte 4,2
 032A 0602              .byte 6,2
 032C 0304              .byte 3,4
 032E 0104              .byte 1,4
 0330 0202              .byte 2,2
 0332 0302              .byte 3,2
 0334 0402              .byte 4,2
 0336 0502              .byte 5,2
 0338 0604              .byte 6,4
 033A 0604              .byte 6,4
 033C 0702              .byte 7,2
 033E 0602              .byte 6,2
 0340 0502              .byte 5,2
 0342 0402              .byte 4,2
 0344 0302              .byte 3,2
 0346 0602              .byte 6,2
 0348 0102              .byte 1,2
 034A 0302              .byte 3,2
 034C 0204              .byte 2,4
 034E 0204              .byte 2,4
 0350 0204              .byte 2,4
 0352 0004              .byte 0,4
 0354 0402              .byte 4,2
 0356 0302              .byte 3,2
 0358 0402              .byte 4,2
 035A 0602              .byte 6,2
 035C 0304              .byte 3,4
 035E 0304              .byte 3,4
 0360 0202              .byte 2,2
 0362 0102              .byte 1,2
 0364 0202              .byte 2,2
 0366 0402              .byte 4,2
 0368 0104              .byte 1,4
 036A 0104              .byte 1,4
 036C 0702              .byte 7,2
 036E 0602              .byte 6,2
 0370 0702              .byte 7,2
 0372 0402              .byte 4,2
 0374 0304              .byte 3,4
 0376 0104              .byte 1,4
 0378 0202              .byte 2,2
 037A 0302              .byte 3,2
 037C 0402              .byte 4,2
 037E 0602              .byte 6,2
 0380 0504              .byte 5,4
 0382 0504              .byte 5,4
 0384 0402              .byte 4,2
 0386 0302              .byte 3,2
 0388 0402              .byte 4,2
 038A 0602              .byte 6,2
 038C 0304              .byte 3,4
 038E 0104              .byte 1,4
 0390 0202              .byte 2,2
 0392 0302              .byte 3,2
 0394 0402              .byte 4,2
 0396 0502              .byte 5,2
 0398 0604              .byte 6,4
 039A 0604              .byte 6,4
 039C 0702              .byte 7,2
 039E 0602              .byte 6,2
 03A0 0502              .byte 5,2
 03A2 0402              .byte 4,2
 03A4 0302              .byte 3,2
 03A6 0602              .byte 6,2
 03A8 0102              .byte 1,2
 03AA 0302              .byte 3,2
 03AC 0204              .byte 2,4
 03AE 0204              .byte 2,4
 03B0 0204              .byte 2,4
 03B2 0201              .byte 2,1
 03B4 0301              .byte 3,1
 03B6 0401              .byte 4,1
 03B8 0501              .byte 5,1
 03BA 0604              .byte 6,4
 03BC 0604              .byte 6,4
 03BE 0604              .byte 6,4
 03C0 0504              .byte 5,4
 03C2 0104              .byte 1,4
 03C4 0704              .byte 7,4
 03C6 0604              .byte 6,4
 03C8 0504              .byte 5,4
 03CA 0304              .byte 3,4
 03CC 0304              .byte 3,4
 03CE 0002              .byte 0,2
 03D0 0302              .byte 3,2
 03D2 0402              .byte 4,2
 03D4 0202              .byte 2,2
 03D6 0204              .byte 2,4
 03D8 0204              .byte 2,4
 03DA 0204              .byte 2,4
 03DC 0004              .byte 0,4
 03DE 0704              .byte 7,4
 03E0 0104              .byte 1,4
 03E2 0202              .byte 2,2
 03E4 0404              .byte 4,4
 03E6 0304              .byte 3,4
 03E8 0404              .byte 4,4
 03EA 0502              .byte 5,2
 03EC 0704              .byte 7,4
 03EE 0602              .byte 6,2
 03F0 0604              .byte 6,4
 03F2 0604              .byte 6,4
 03F4 0604              .byte 6,4
 03F6 0004              .byte 0,4
 03F8 0004              .byte 0,4
 03FA 0004              .byte 0,4
 03FC 0004              .byte 0,4
 03FE 0004              .byte 0,4
 0400 0502              .byte 5,2
 0402 0402              .byte 4,2
 0404 0502              .byte 5,2
 0406 0702              .byte 7,2
 0408 0404              .byte 4,4
 040A 0404              .byte 4,4
 040C 000000000000000000000000000000000000000000000000000000000000000000000000000000000000000000000000000000000000000000000000  .word 0,0,0,0,0,0,0,0,0,0,0,0,0,0,0,0,0,0,0,0,0,0,0,0,0,0,0,0,0,0
 0448 00000000          .byte 0,0,0,0
 044C                   .dbsym e music2 _music2 A[600:600]kc
                        .area data(ram, con, rel)
 0020                   .dbfile C:\Users\ASUS\Desktop\AircraftWar\LCD.c
 0020           _music_sel::
 0020                   .blkb 1
                        .area idata
 0020 02                .byte 2
                        .area data(ram, con, rel)
 0021                   .dbfile C:\Users\ASUS\Desktop\AircraftWar\LCD.c
 0021                   .dbsym e music_sel _music_sel c
 0021           _led_7::
 0021                   .blkb 2
                        .area idata
 0021 C0F9              .byte 192,249
                        .area data(ram, con, rel)
 0023                   .dbfile C:\Users\ASUS\Desktop\AircraftWar\LCD.c
 0023                   .blkb 2
                        .area idata
 0023 A4B0              .byte 164,176
                        .area data(ram, con, rel)
 0025                   .dbfile C:\Users\ASUS\Desktop\AircraftWar\LCD.c
 0025                   .blkb 2
                        .area idata
 0025 9992              .byte 153,146
                        .area data(ram, con, rel)
 0027                   .dbfile C:\Users\ASUS\Desktop\AircraftWar\LCD.c
 0027                   .blkb 2
                        .area idata
 0027 82F8              .byte 130,248
                        .area data(ram, con, rel)
 0029                   .dbfile C:\Users\ASUS\Desktop\AircraftWar\LCD.c
 0029                   .blkb 2
                        .area idata
 0029 8090              .byte 128,144
                        .area data(ram, con, rel)
 002B                   .dbfile C:\Users\ASUS\Desktop\AircraftWar\LCD.c
 002B                   .blkb 2
                        .area idata
 002B FF7F              .byte 255,127
                        .area data(ram, con, rel)
 002D                   .dbfile C:\Users\ASUS\Desktop\AircraftWar\LCD.c
 002D                   .blkb 2
                        .area idata
 002D C600              .byte 198,0
                        .area data(ram, con, rel)
 002F                   .dbfile C:\Users\ASUS\Desktop\AircraftWar\LCD.c
 002F                   .dbsym e led_7 _led_7 A[14:14]c
 002F           _disp_buff_min_number::
 002F                   .blkb 1
                        .area idata
 002F 00                .byte 0
                        .area data(ram, con, rel)
 0030                   .dbfile C:\Users\ASUS\Desktop\AircraftWar\LCD.c
 0030                   .dbsym e disp_buff_min_number _disp_buff_min_number c
 0030           _disp_buff_sec_number::
 0030                   .blkb 1
                        .area idata
 0030 00                .byte 0
                        .area data(ram, con, rel)
 0031                   .dbfile C:\Users\ASUS\Desktop\AircraftWar\LCD.c
 0031                   .dbsym e disp_buff_sec_number _disp_buff_sec_number c
 0031           _disp_buff::
 0031                   .blkb 2
                        .area idata
 0031 0000              .byte 0,0
                        .area data(ram, con, rel)
 0033                   .dbfile C:\Users\ASUS\Desktop\AircraftWar\LCD.c
 0033                   .blkb 2
                        .area idata
 0033 0000              .byte 0,0
                        .area data(ram, con, rel)
 0035                   .dbfile C:\Users\ASUS\Desktop\AircraftWar\LCD.c
 0035                   .dbsym e disp_buff _disp_buff A[4:4]c
 0035           _post::
 0035                   .blkb 1
                        .area idata
 0035 00                .byte 0
                        .area data(ram, con, rel)
 0036                   .dbfile C:\Users\ASUS\Desktop\AircraftWar\LCD.c
 0036                   .dbsym e post _post c
 0036           _time_10ms_count::
 0036                   .blkb 1
                        .area idata
 0036 00                .byte 0
                        .area data(ram, con, rel)
 0037                   .dbfile C:\Users\ASUS\Desktop\AircraftWar\LCD.c
 0037                   .dbsym e time_10ms_count _time_10ms_count c
 0037           _time_10ms_ok::
 0037                   .blkb 1
                        .area idata
 0037 00                .byte 0
                        .area data(ram, con, rel)
 0038                   .dbfile C:\Users\ASUS\Desktop\AircraftWar\LCD.c
 0038                   .dbsym e time_10ms_ok _time_10ms_ok c
 0038           _time_300ms_count::
 0038                   .blkb 1
                        .area idata
 0038 00                .byte 0
                        .area data(ram, con, rel)
 0039                   .dbfile C:\Users\ASUS\Desktop\AircraftWar\LCD.c
 0039                   .dbsym e time_300ms_count _time_300ms_count c
 0039           _time_300ms_ok::
 0039                   .blkb 1
                        .area idata
 0039 00                .byte 0
                        .area data(ram, con, rel)
 003A                   .dbfile C:\Users\ASUS\Desktop\AircraftWar\LCD.c
 003A                   .dbsym e time_300ms_ok _time_300ms_ok c
 003A           _time_1s_count::
 003A                   .blkb 2
                        .area idata
 003A 0000              .word 0
                        .area data(ram, con, rel)
 003C                   .dbfile C:\Users\ASUS\Desktop\AircraftWar\LCD.c
 003C                   .dbsym e time_1s_count _time_1s_count i
 003C           _time_1s_ok::
 003C                   .blkb 1
                        .area idata
 003C 00                .byte 0
                        .area data(ram, con, rel)
 003D                   .dbfile C:\Users\ASUS\Desktop\AircraftWar\LCD.c
 003D                   .dbsym e time_1s_ok _time_1s_ok c
 003D           _isflash::
 003D                   .blkb 1
                        .area idata
 003D 00                .byte 0
                        .area data(ram, con, rel)
 003E                   .dbfile C:\Users\ASUS\Desktop\AircraftWar\LCD.c
 003E                   .dbsym e isflash _isflash c
 003E           _flash_count::
 003E                   .blkb 1
                        .area idata
 003E 00                .byte 0
                        .area data(ram, con, rel)
 003F                   .dbfile C:\Users\ASUS\Desktop\AircraftWar\LCD.c
 003F                   .dbsym e flash_count _flash_count c
 003F           _layout0::
 003F                   .blkb 2
                        .area idata
 003F 0108              .byte 1,8
                        .area data(ram, con, rel)
 0041                   .dbfile C:\Users\ASUS\Desktop\AircraftWar\LCD.c
 0041                   .dbsym e layout0 _layout0 A[2:2]c
 0041           _layout1::
 0041                   .blkb 2
                        .area idata
 0041 0108              .byte 1,8
                        .area data(ram, con, rel)
 0043                   .dbfile C:\Users\ASUS\Desktop\AircraftWar\LCD.c
 0043                   .dbsym e layout1 _layout1 A[2:2]c
 0043           _layout2::
 0043                   .blkb 2
                        .area idata
 0043 0108              .byte 1,8
                        .area data(ram, con, rel)
 0045                   .dbfile C:\Users\ASUS\Desktop\AircraftWar\LCD.c
 0045                   .dbsym e layout2 _layout2 A[2:2]c
 0045           _layout3::
 0045                   .blkb 2
                        .area idata
 0045 0108              .byte 1,8
                        .area data(ram, con, rel)
 0047                   .dbfile C:\Users\ASUS\Desktop\AircraftWar\LCD.c
 0047                   .dbsym e layout3 _layout3 A[2:2]c
 0047           _layout4::
 0047                   .blkb 2
                        .area idata
 0047 0108              .byte 1,8
                        .area data(ram, con, rel)
 0049                   .dbfile C:\Users\ASUS\Desktop\AircraftWar\LCD.c
 0049                   .dbsym e layout4 _layout4 A[2:2]c
 0049           _layout5::
 0049                   .blkb 2
                        .area idata
 0049 0108              .byte 1,8
                        .area data(ram, con, rel)
 004B                   .dbfile C:\Users\ASUS\Desktop\AircraftWar\LCD.c
 004B                   .dbsym e layout5 _layout5 A[2:2]c
 004B           _plane_x::
 004B                   .blkb 1
                        .area idata
 004B 28                .byte 40
                        .area data(ram, con, rel)
 004C                   .dbfile C:\Users\ASUS\Desktop\AircraftWar\LCD.c
 004C                   .dbsym e plane_x _plane_x c
 004C           _plane_y::
 004C                   .blkb 1
                        .area idata
 004C 05                .byte 5
                        .area data(ram, con, rel)
 004D                   .dbfile C:\Users\ASUS\Desktop\AircraftWar\LCD.c
 004D                   .dbsym e plane_y _plane_y c
 004D           _plane_bullet_x::
 004D                   .blkb 1
                        .area idata
 004D 00                .byte 0
                        .area data(ram, con, rel)
 004E                   .dbfile C:\Users\ASUS\Desktop\AircraftWar\LCD.c
 004E                   .dbsym e plane_bullet_x _plane_bullet_x c
 004E           _plane_bullet_y::
 004E                   .blkb 1
                        .area idata
 004E 00                .byte 0
                        .area data(ram, con, rel)
 004F                   .dbfile C:\Users\ASUS\Desktop\AircraftWar\LCD.c
 004F                   .dbsym e plane_bullet_y _plane_bullet_y c
                        .area text(rom, con, rel)
 0000                   .dbfile C:\Users\ASUS\Desktop\AircraftWar\LCD.c
 0000                   .dbfunc e timer1_init _timer1_init fV
                        .even
 0000           _timer1_init::
 0000                   .dbline -1
 0000                   .dbline 127
 0000           ; //ICC-AVR application builder : 2009-10-23 18:40:43
 0000           ; // Target : M16
 0000           ; // Crystal: 7.3728Mhz
 0000           ; 
 0000           ; #include <iom16v.h>
 0000           ; #include <macros.h>
 0000           ; #include "3310LCD.h"
 0000           ; 
 0000           ; 
 0000           ; #define CLR_SHCLK() PORTB &= ~(1<<1)//移位时钟 SCLK
 0000           ; #define SET_SHCLK() PORTB |= (1<<1)   //移位时钟 SCLK，上升沿
 0000           ; 
 0000           ; #define CLR_STCLK() PORTB &= ~(1<<0) //锁存时钟 RCLK
 0000           ; #define SET_STCLK() PORTB |= (1<<0)   //拉高锁存时钟，上升沿
 0000           ; 
 0000           ; #define CLR_DS()      PORTA &= ~(1<<0)//清零
 0000           ; #define SET_DS()      PORTA |= (1<<0) //置位
 0000           ; 
 0000           ; #define key_input ((PIND&(1<<3))|(PINA&(1<<7)))
 0000           ; #define key_state_0 0
 0000           ; #define key_state_1 1
 0000           ; #define key_state_2 2
 0000           ; #define key_state_3 3
 0000           ; #define nokey 0
 0000           ; #define SW8 1
 0000           ; #define key1_short 2
 0000           ; #define key1_long 3
 0000           ; 
 0000           ; #define noflash 0
 0000           ; #define secflash 1
 0000           ; #define minflash 2
 0000           ; 
 0000           ; unsigned int t[9] = {0,956,865,759,716,638,568,506,470};
 0000           ; unsigned char d[9] = {0,105,116,132,140,157,176,198,209};
 0000           ; 
 0000           ; unsigned char note_n = 0;
 0000           ; unsigned int int_n = 1;
 0000           ; unsigned char sound_flag = 0;
 0000           ; unsigned char flag = 0;
 0000           ; #define period_rate 0.9216
 0000           ; #define note_rate 2
 0000           ; 
 0000           ; 
 0000           ; 
 0000           ; 
 0000           ; 
 0000           ; 
 0000           ; //梦中的婚礼
 0000           ; #define music1_Max_note 500
 0000           ; const unsigned char music1[music1_Max_note] = {
 0000           ;                       3,2, 3,2, 3,2, 1,1, 3,1,   5,2,   5,2,   1,1,  5,1,  3,2,  6,2, 7,2, 7,1, 6,2, 5,2, 3,2, 5,1, 6,1, 4,1, 5,1,
 0000           ; 
 0000           ;  3,1,  1,1, 2,1, 7,2,  1,2,  5,1,   3,1,  6,2, 7,1,  7,1, 6,2,  5,1, 3,2, 5,2, 6,2, 4,2, 5,2,  3,2, 2,1, 1,1, 7,4,
 0000           ; 
 0000           ;  5,2, 4,1, 4,1, 3,2, 3,2, 5,1, 6,2, 1,2, 6,1,  1,1, 2,2,  5,1, 4,1, 4,2, 3,2,  3,2, 1,2, 1,2, 1,2,   5,1, 4,1, 4,1, 3,2, 3,1,
 0000           ;  
 0000           ;  
 0000           ;  
 0000           ;  
 0000           ;  0,4, 0,4, 0,4,  0,2, 6,1, 6,1, 7,1, 7,1, 1,1, 1,1, 7,1, 7,1, 6,1, 6,1, 3,1,3,1, 1,1, 1,1, 6,1, 6,1, 5,1,5,1, 4,1, 4,1, 3,1, 4,1, 5,1, 4,2, 4,4,
 0000           ;  
 0000           ;  0,1, 4,1, 4,1, 5,1, 5,1, 6,1, 6,1, 7,1, 7,1, 5,1, 5,1, 2,1, 2,1, 4,1, 4,1, 3,1, 3,1, 2,1, 3,1, 4,1, 3,2, 3,2, 3,1, 3,4,
 0000           ;  
 0000           ;  3,2, 6,1, 1,1, 3,1, 2,1, 3,2, 6,1, 1,1, 3,1, 2,1, 3,2, 6,1, 1,1, 4,1, 3,1, 4,2, 6,1, 1,1, 4,1, 3,1, 4,2, 4,1, 3,1, 4,1, 4,1, 5,2, 5,1, 6,1, 5,1, 6,1, 3,4,
 0000           ;  
 0000           ;  3,2, 6,1, 1,1, 3,1, 2,1, 3,2, 6,1, 1,1, 3,1, 2,1, 3,2, 6,1, 1,1, 4,1, 3,1, 4,2, 6,1, 1,1, 4,1, 3,1, 4,2, 4,1, 3,1, 4,1, 4,1, 5,2, 5,1, 6,1, 5,1, 6,1, 3,4,
 0000           ;  
 0000           ;  1,2, 3,1, 3,1, 4,1, 4,2, 2,1, 2,1, 7,1, 7,2, 2,1, 2,1, 3,1, 3,2, 1,1, 1,1, 6,1, 5,1, 6,2, 1,1, 1,1, 2,1, 2,2, 7,1, 3,1, 2,1, 3,4
 0000           ;  
 0000           ; 
 0000           ;                       };
 0000           ;       
 0000           ; 
 0000           ; 
 0000           ; 
 0000           ; //星之所在                    
 0000           ; #define music2_Max_note 600
 0000           ; const unsigned char music2[music2_Max_note]={
 0000           ;                                          4,2,  3,2,  4,2,  6,2,  3,4,  3,4,            2,2, 1,2, 2,2, 4,2, 1,4, 1,4,        7,2, 6,2, 7,2, 4,2, 3,4, 1,4,
 0000           ;  2,2, 3,2, 4,2, 6,2, 5,4, 5,4,           4,2,  3,2,  4,2,  6,2,  3,4,  1,4,            2,2, 3,2, 4,2, 5,2, 6,4, 6,4,        7,2, 6,2, 5,2, 4,2, 3,2, 6,2, 1,2, 3,2,
 0000           ;  2,4, 2,4, 2,4, 0,4,        4,2, 3,2, 4,2, 6,2, 3,4, 3,4,       2,2, 1,2, 2,2, 4,2, 1,4, 1,4,      7,2, 6,2, 7,2, 4,2, 3,4, 1,4,   2,2, 3,2, 4,2, 6,2, 5,4, 5,4, 
 0000           ;  4,2, 3,2, 4,2, 6,2, 3,4, 1,4,           2,2,  3,2,  4,2,  5,2,  6,4,  6,4,            7,2, 6,2, 5,2, 4,2, 3,2, 6,2, 1,2, 3,2,   2,4, 2,4, 2,4,
 0000           ;  6,4, 5,4,        1,4, 7,4, 6,4, 5,4,     3,4, 3,4, 0,2, 3,2, 4,2, 2,2, 2,4, 2,4, 2,4, 0,4,     7,4, 1,4, 2,2, 4,4,   
 0000           ;  3,4, 4,4, 5,2, 7,4, 6,2, 6,4, 6,4, 6,4, 0,4, 0,4, 0,4,0,4,0,4,
 0000           ;                                          4,2,  3,2,  4,2,  6,2,  3,4,  3,4,            2,2, 1,2, 2,2, 4,2, 1,4, 1,4,        7,2, 6,2, 7,2, 4,2, 3,4, 1,4,
 0000           ;  2,2, 3,2, 4,2, 6,2, 5,4, 5,4,           4,2,  3,2,  4,2,  6,2,  3,4,  1,4,            2,2, 3,2, 4,2, 5,2, 6,4, 6,4,        7,2, 6,2, 5,2, 4,2, 3,2, 6,2, 1,2, 3,2,
 0000           ;  2,4, 2,4, 2,4, 0,4,        4,2, 3,2, 4,2, 6,2, 3,4, 3,4,       2,2, 1,2, 2,2, 4,2, 1,4, 1,4,      7,2, 6,2, 7,2, 4,2, 3,4, 1,4,   2,2, 3,2, 4,2, 6,2, 5,4, 5,4, 
 0000           ;  4,2, 3,2, 4,2, 6,2, 3,4, 1,4,           2,2,  3,2,  4,2,  5,2,  6,4,  6,4,            7,2, 6,2, 5,2, 4,2, 3,2, 6,2, 1,2, 3,2,   2,4, 2,4, 2,4, 2,1, 3,1, 4,1, 5,1,
 0000           ;  6,4, 6,4, 6,4, 5,4,        1,4, 7,4, 6,4, 5,4,     3,4, 3,4, 0,2, 3,2, 4,2, 2,2, 2,4, 2,4, 2,4, 0,4,     7,4, 1,4, 2,2, 4,4,   
 0000           ;  3,4, 4,4, 5,2, 7,4, 6,2, 6,4, 6,4, 6,4, 0,4, 0,4, 0,4,0,4,0,4,      5,2, 4,2, 5,2, 7,2, 4,4, 4,4
 0000           ;                            };
 0000           ; 
 0000           ; 
 0000           ;                                                  
 0000           ; unsigned char music_sel = 2;                                             
 0000           ; 
 0000           ; //定义字符表                                                                                                                          
 0000           ; unsigned char led_7[14] = {0xc0,0xF9,0xA4,0xB0,0x99,0x92,0x82,0xF8,
 0000           ;                                                  0x80,0x90,0xff,0x7f,0xc6,0x00};
 0000           ; unsigned char disp_buff_min_number = 0;       
 0000           ; unsigned char disp_buff_sec_number = 0;                                
 0000           ; unsigned char disp_buff[4] = {0,0,0,0};
 0000           ; unsigned char post = 0;
 0000           ; unsigned char time_10ms_count = 0;
 0000           ; unsigned char time_10ms_ok = 0;
 0000           ; unsigned char time_300ms_count = 0;
 0000           ; unsigned char time_300ms_ok = 0;
 0000           ; unsigned int time_1s_count = 0;
 0000           ; unsigned char time_1s_ok = 0;
 0000           ; unsigned char isflash = noflash;
 0000           ; unsigned char flash_count = 0;
 0000           ; 
 0000           ; unsigned char layout0[2] = {1,0x08};
 0000           ; unsigned char layout1[2] = {1,0x08};
 0000           ; unsigned char layout2[2] = {1,0x08};
 0000           ; unsigned char layout3[2] = {1,0x08};
 0000           ; unsigned char layout4[2] = {1,0x08};
 0000           ; unsigned char layout5[2] = {1,0x08};
 0000           ; unsigned char plane_x = 40;
 0000           ; unsigned char plane_y = 5;
 0000           ; unsigned char plane_bullet_x = 0;
 0000           ; unsigned char plane_bullet_y = 0;
 0000           ; 
 0000           ; 
 0000           ; //CTC模式，8分频
 0000           ; void timer1_init(void)
 0000           ; {
 0000                   .dbline 130
 0000           ;       //TCCR1A = 0x40;
 0000           ;       //TCCR1B = 0x0A;        //CTC模式,8分频,start
 0000           ;       TCCR1B = 0x08;          //stop
 0000 88E0              ldi R24,8
 0002 8EBD              out 0x2e,R24
 0004                   .dbline -2
 0004           L1:
 0004                   .dbline 0 ; func end
 0004 0895              ret
 0006                   .dbend
                        .area vector(rom, abs)
                        .org 24
 0018 0C940300          jmp _timer1_compa_isr
                        .area text(rom, con, rel)
 0006                   .dbfile C:\Users\ASUS\Desktop\AircraftWar\LCD.c
 0006                   .dbfunc e timer1_compa_isr _timer1_compa_isr fV
                        .even
 0006           _timer1_compa_isr::
 0006 1A92              st -y,R1
 0008 2A92              st -y,R2
 000A 3A92              st -y,R3
 000C 4A92              st -y,R4
 000E 5A92              st -y,R5
 0010 0A93              st -y,R16
 0012 1A93              st -y,R17
 0014 2A93              st -y,R18
 0016 3A93              st -y,R19
 0018 8A93              st -y,R24
 001A 9A93              st -y,R25
 001C EA93              st -y,R30
 001E FA93              st -y,R31
 0020 1FB6              IN R1,63
 0022 1A92              st -y,R1
 0024                   .dbline -1
 0024                   .dbline 135
 0024           ; }
 0024           ; 
 0024           ; #pragma interrupt_handler timer1_compa_isr:iv_TIM1_COMPA
 0024           ; void timer1_compa_isr(void)
 0024           ; {
 0024                   .dbline 137
 0024           ;       //compare occured TCNT1=OCR1A
 0024           ;       if(music_sel == 1)
 0024 80912000          lds R24,_music_sel
 0028 8130              cpi R24,1
 002A 09F0              breq X11
 002C DAC0              xjmp L3
 002E           X11:
 002E           X0:
 002E                   .dbline 138
 002E           ;       {
 002E                   .dbline 139
 002E           ;               if(note_n == music1_Max_note)   //重头开始播放音乐
 002E 80911B00          lds R24,_note_n
 0032 843F              cpi R24,244
 0034 51F4              brne L5
 0036           X1:
 0036                   .dbline 140
 0036           ;               {
 0036                   .dbline 141
 0036           ;                       note_n = 0;
 0036 2224              clr R2
 0038 20921B00          sts _note_n,R2
 003C                   .dbline 142
 003C           ;                       int_n = 1;
 003C 81E0              ldi R24,1
 003E 90E0              ldi R25,0
 0040 90931D00          sts _int_n+1,R25
 0044 80931C00          sts _int_n,R24
 0048                   .dbline 143
 0048           ;               }
 0048 A4C1              xjmp L4
 004A           L5:
 004A                   .dbline 145
 004A           ;               else
 004A           ;               {
 004A                   .dbline 146
 004A           ;                       if(--int_n == 0)        //播放完一个音符
 004A 80911C00          lds R24,_int_n
 004E 90911D00          lds R25,_int_n+1
 0052 0197              sbiw R24,1
 0054 1C01              movw R2,R24
 0056 30921D00          sts _int_n+1,R3
 005A 20921C00          sts _int_n,R2
 005E 8030              cpi R24,0
 0060 8907              cpc R24,R25
 0062 09F0              breq X12
 0064 ABC0              xjmp L7
 0066           X12:
 0066           X2:
 0066                   .dbline 147
 0066           ;                       {
 0066                   .dbline 148
 0066           ;                               if(music1[note_n] == 0) //无声音一段时间
 0066 80E0              ldi R24,<_music1
 0068 90E0              ldi R25,>_music1
 006A E0911B00          lds R30,_note_n
 006E FF27              clr R31
 0070 E80F              add R30,R24
 0072 F91F              adc R31,R25
 0074 2490              lpm R2,Z
 0076 2220              tst R2
 0078 09F0              breq X13
 007A 44C0              xjmp L9
 007C           X13:
 007C           X3:
 007C                   .dbline 149
 007C           ;                               {
 007C                   .dbline 150
 007C           ;                                       sound_flag = 0;
 007C 2224              clr R2
 007E 20921E00          sts _sound_flag,R2
 0082                   .dbline 151
 0082           ;                                       TCCR1B = 0x08;  //timer1停止工作
 0082 88E0              ldi R24,8
 0084 8EBD              out 0x2e,R24
 0086                   .dbline 152
 0086           ;                                       PORTA |= (1 << 3);      //关闭蜂鸣器
 0086 DB9A              sbi 0x1b,3
 0088                   .dbline 153
 0088           ;                                       OCR1A = t[1] / period_rate;
 0088 00910200          lds R16,_t+2
 008C 10910300          lds R17,_t+2+1
 0090 0E940000          xcall uint2fp
 0094 1801              movw R2,R16
 0096 2901              movw R4,R18
 0098 00E0              ldi R16,<L12
 009A 10E0              ldi R17,>L12
 009C 0E940000          xcall lpm32
 00A0 3A93              st -y,R19
 00A2 2A93              st -y,R18
 00A4 1A93              st -y,R17
 00A6 0A93              st -y,R16
 00A8 8101              movw R16,R2
 00AA 9201              movw R18,R4
 00AC 0E940000          xcall fpdiv2
 00B0 0E940000          xcall fpint
 00B4 1BBD              out 0x2b,R17
 00B6 0ABD              out 0x2a,R16
 00B8                   .dbline 154
 00B8           ;                                       int_n = d[1] * note_rate;
 00B8 20901300          lds R2,_d+1
 00BC 3324              clr R3
 00BE 220C              lsl R2
 00C0 331C              rol R3
 00C2 30921D00          sts _int_n+1,R3
 00C6 20921C00          sts _int_n,R2
 00CA                   .dbline 155
 00CA           ;                                       note_n++;
 00CA 80911B00          lds R24,_note_n
 00CE 8F5F              subi R24,255    ; addi 1
 00D0 80931B00          sts _note_n,R24
 00D4                   .dbline 156
 00D4           ;                                       int_n = int_n * music1[note_n];
 00D4 80E0              ldi R24,<_music1
 00D6 90E0              ldi R25,>_music1
 00D8 E0911B00          lds R30,_note_n
 00DC FF27              clr R31
 00DE E80F              add R30,R24
 00E0 F91F              adc R31,R25
 00E2 2491              lpm R18,Z
 00E4 3327              clr R19
 00E6 8101              movw R16,R2
 00E8 0E940000          xcall empy16s
 00EC 10931D00          sts _int_n+1,R17
 00F0 00931C00          sts _int_n,R16
 00F4                   .dbline 157
 00F4           ;                                       note_n++;
 00F4 80911B00          lds R24,_note_n
 00F8 8F5F              subi R24,255    ; addi 1
 00FA 80931B00          sts _note_n,R24
 00FE                   .dbline 158
 00FE           ;                                       TCCR1B = 0x0A;  //启动timer1，播放下一个音符
 00FE 8AE0              ldi R24,10
 0100 8EBD              out 0x2e,R24
 0102                   .dbline 159
 0102           ;                               }
 0102 47C1              xjmp L4
 0104           L9:
 0104                   .dbline 161
 0104           ;                               else
 0104           ;                               {
 0104                   .dbline 162
 0104           ;                                       sound_flag = 1;
 0104 81E0              ldi R24,1
 0106 80931E00          sts _sound_flag,R24
 010A                   .dbline 163
 010A           ;                                       TCCR1B = 0x08;  //timer1停止工作
 010A 88E0              ldi R24,8
 010C 8EBD              out 0x2e,R24
 010E                   .dbline 164
 010E           ;                                       OCR1A = t[music1[note_n]] / period_rate;//取下一个音符
 010E 80E0              ldi R24,<_music1
 0110 90E0              ldi R25,>_music1
 0112 E0911B00          lds R30,_note_n
 0116 FF27              clr R31
 0118 E80F              add R30,R24
 011A F91F              adc R31,R25
 011C E491              lpm R30,Z
 011E FF27              clr R31
 0120 EE0F              lsl R30
 0122 FF1F              rol R31
 0124 80E0              ldi R24,<_t
 0126 90E0              ldi R25,>_t
 0128 E80F              add R30,R24
 012A F91F              adc R31,R25
 012C 0081              ldd R16,z+0
 012E 1181              ldd R17,z+1
 0130 0E940000          xcall uint2fp
 0134 1801              movw R2,R16
 0136 2901              movw R4,R18
 0138 00E0              ldi R16,<L12
 013A 10E0              ldi R17,>L12
 013C 0E940000          xcall lpm32
 0140 3A93              st -y,R19
 0142 2A93              st -y,R18
 0144 1A93              st -y,R17
 0146 0A93              st -y,R16
 0148 8101              movw R16,R2
 014A 9201              movw R18,R4
 014C 0E940000          xcall fpdiv2
 0150 0E940000          xcall fpint
 0154 1BBD              out 0x2b,R17
 0156 0ABD              out 0x2a,R16
 0158                   .dbline 165
 0158           ;                                       int_n = d[music1[note_n]] * note_rate;//取该音符的基本节拍单位
 0158 80E0              ldi R24,<_music1
 015A 90E0              ldi R25,>_music1
 015C E0911B00          lds R30,_note_n
 0160 FF27              clr R31
 0162 E80F              add R30,R24
 0164 F91F              adc R31,R25
 0166 E491              lpm R30,Z
 0168 FF27              clr R31
 016A 80E0              ldi R24,<_d
 016C 90E0              ldi R25,>_d
 016E E80F              add R30,R24
 0170 F91F              adc R31,R25
 0172 2080              ldd R2,z+0
 0174 3324              clr R3
 0176 220C              lsl R2
 0178 331C              rol R3
 017A 30921D00          sts _int_n+1,R3
 017E 20921C00          sts _int_n,R2
 0182                   .dbline 166
 0182           ;                                       note_n++;
 0182 80911B00          lds R24,_note_n
 0186 8F5F              subi R24,255    ; addi 1
 0188 80931B00          sts _note_n,R24
 018C                   .dbline 167
 018C           ;                                       int_n = int_n * music1[note_n]; //计算该音符的节拍值
 018C 80E0              ldi R24,<_music1
 018E 90E0              ldi R25,>_music1
 0190 E0911B00          lds R30,_note_n
 0194 FF27              clr R31
 0196 E80F              add R30,R24
 0198 F91F              adc R31,R25
 019A 2491              lpm R18,Z
 019C 3327              clr R19
 019E 8101              movw R16,R2
 01A0 0E940000          xcall empy16s
 01A4 10931D00          sts _int_n+1,R17
 01A8 00931C00          sts _int_n,R16
 01AC                   .dbline 168
 01AC           ;                                       note_n++;
 01AC 80911B00          lds R24,_note_n
 01B0 8F5F              subi R24,255    ; addi 1
 01B2 80931B00          sts _note_n,R24
 01B6                   .dbline 169
 01B6           ;                                       TCCR1B = 0x0A;          //启动timer1，播放下一个音符
 01B6 8AE0              ldi R24,10
 01B8 8EBD              out 0x2e,R24
 01BA                   .dbline 170
 01BA           ;                               }
 01BA                   .dbline 171
 01BA           ;                       }
 01BA EBC0              xjmp L4
 01BC           L7:
 01BC                   .dbline 173
 01BC           ;                       else
 01BC           ;                       {
 01BC                   .dbline 174
 01BC           ;                               if(sound_flag)
 01BC 20901E00          lds R2,_sound_flag
 01C0 2220              tst R2
 01C2 09F4              brne X14
 01C4 E6C0              xjmp L4
 01C6           X14:
 01C6           X4:
 01C6                   .dbline 175
 01C6           ;                               {
 01C6                   .dbline 176
 01C6           ;                                       if(flag)
 01C6 20901F00          lds R2,_flag
 01CA 2220              tst R2
 01CC 29F0              breq L16
 01CE           X5:
 01CE                   .dbline 177
 01CE           ;                                       {
 01CE                   .dbline 178
 01CE           ;                                               PORTA &= ~(1<<3);
 01CE DB98              cbi 0x1b,3
 01D0                   .dbline 179
 01D0           ;                                               flag = 0;
 01D0 2224              clr R2
 01D2 20921F00          sts _flag,R2
 01D6                   .dbline 180
 01D6           ;                                       }
 01D6 DDC0              xjmp L4
 01D8           L16:
 01D8                   .dbline 182
 01D8           ;                                       else
 01D8           ;                                       {
 01D8                   .dbline 183
 01D8           ;                                               PORTA |= (1<<3);
 01D8 DB9A              sbi 0x1b,3
 01DA                   .dbline 184
 01DA           ;                                               flag = 1;
 01DA 81E0              ldi R24,1
 01DC 80931F00          sts _flag,R24
 01E0                   .dbline 185
 01E0           ;                                       }
 01E0                   .dbline 186
 01E0           ;                               }
 01E0                   .dbline 187
 01E0           ;                       }
 01E0                   .dbline 188
 01E0           ;               }
 01E0                   .dbline 189
 01E0           ;       }
 01E0 D8C0              xjmp L4
 01E2           L3:
 01E2                   .dbline 193
 01E2           ;       
 01E2           ;       
 01E2           ;       else
 01E2           ;       {
 01E2                   .dbline 194
 01E2           ;               if(note_n == music2_Max_note)   //重头开始播放音乐
 01E2 80911B00          lds R24,_note_n
 01E6 8835              cpi R24,88
 01E8 51F4              brne L18
 01EA           X6:
 01EA                   .dbline 195
 01EA           ;               {
 01EA                   .dbline 196
 01EA           ;                       note_n = 0;
 01EA 2224              clr R2
 01EC 20921B00          sts _note_n,R2
 01F0                   .dbline 197
 01F0           ;                       int_n = 1;
 01F0 81E0              ldi R24,1
 01F2 90E0              ldi R25,0
 01F4 90931D00          sts _int_n+1,R25
 01F8 80931C00          sts _int_n,R24
 01FC                   .dbline 198
 01FC           ;               }
 01FC CAC0              xjmp L19
 01FE           L18:
 01FE                   .dbline 200
 01FE           ;               else
 01FE           ;               {
 01FE                   .dbline 201
 01FE           ;                       if(--int_n == 0)        //播放完一个音符
 01FE 80911C00          lds R24,_int_n
 0202 90911D00          lds R25,_int_n+1
 0206 0197              sbiw R24,1
 0208 1C01              movw R2,R24
 020A 30921D00          sts _int_n+1,R3
 020E 20921C00          sts _int_n,R2
 0212 8030              cpi R24,0
 0214 8907              cpc R24,R25
 0216 09F0              breq X15
 0218 ABC0              xjmp L20
 021A           X15:
 021A           X7:
 021A                   .dbline 202
 021A           ;                       {
 021A                   .dbline 203
 021A           ;                               if(music1[note_n] == 0) //无声音一段时间
 021A 80E0              ldi R24,<_music1
 021C 90E0              ldi R25,>_music1
 021E E0911B00          lds R30,_note_n
 0222 FF27              clr R31
 0224 E80F              add R30,R24
 0226 F91F              adc R31,R25
 0228 2490              lpm R2,Z
 022A 2220              tst R2
 022C 09F0              breq X16
 022E 44C0              xjmp L22
 0230           X16:
 0230           X8:
 0230                   .dbline 204
 0230           ;                               {
 0230                   .dbline 205
 0230           ;                                       sound_flag = 0;
 0230 2224              clr R2
 0232 20921E00          sts _sound_flag,R2
 0236                   .dbline 206
 0236           ;                                       TCCR1B = 0x08;  //timer1停止工作
 0236 88E0              ldi R24,8
 0238 8EBD              out 0x2e,R24
 023A                   .dbline 207
 023A           ;                                       PORTA |= (1 << 3);      //关闭蜂鸣器
 023A DB9A              sbi 0x1b,3
 023C                   .dbline 208
 023C           ;                                       OCR1A = t[1] / period_rate;
 023C 00910200          lds R16,_t+2
 0240 10910300          lds R17,_t+2+1
 0244 0E940000          xcall uint2fp
 0248 1801              movw R2,R16
 024A 2901              movw R4,R18
 024C 00E0              ldi R16,<L12
 024E 10E0              ldi R17,>L12
 0250 0E940000          xcall lpm32
 0254 3A93              st -y,R19
 0256 2A93              st -y,R18
 0258 1A93              st -y,R17
 025A 0A93              st -y,R16
 025C 8101              movw R16,R2
 025E 9201              movw R18,R4
 0260 0E940000          xcall fpdiv2
 0264 0E940000          xcall fpint
 0268 1BBD              out 0x2b,R17
 026A 0ABD              out 0x2a,R16
 026C                   .dbline 209
 026C           ;                                       int_n = d[1] * note_rate;
 026C 20901300          lds R2,_d+1
 0270 3324              clr R3
 0272 220C              lsl R2
 0274 331C              rol R3
 0276 30921D00          sts _int_n+1,R3
 027A 20921C00          sts _int_n,R2
 027E                   .dbline 210
 027E           ;                                       note_n++;
 027E 80911B00          lds R24,_note_n
 0282 8F5F              subi R24,255    ; addi 1
 0284 80931B00          sts _note_n,R24
 0288                   .dbline 211
 0288           ;                                       int_n = int_n * music2[note_n];
 0288 80E0              ldi R24,<_music2
 028A 90E0              ldi R25,>_music2
 028C E0911B00          lds R30,_note_n
 0290 FF27              clr R31
 0292 E80F              add R30,R24
 0294 F91F              adc R31,R25
 0296 2491              lpm R18,Z
 0298 3327              clr R19
 029A 8101              movw R16,R2
 029C 0E940000          xcall empy16s
 02A0 10931D00          sts _int_n+1,R17
 02A4 00931C00          sts _int_n,R16
 02A8                   .dbline 212
 02A8           ;                                       note_n++;
 02A8 80911B00          lds R24,_note_n
 02AC 8F5F              subi R24,255    ; addi 1
 02AE 80931B00          sts _note_n,R24
 02B2                   .dbline 213
 02B2           ;                                       TCCR1B = 0x0A;  //启动timer1，播放下一个音符
 02B2 8AE0              ldi R24,10
 02B4 8EBD              out 0x2e,R24
 02B6                   .dbline 214
 02B6           ;                               }
 02B6 6DC0              xjmp L21
 02B8           L22:
 02B8                   .dbline 216
 02B8           ;                               else
 02B8           ;                               {
 02B8                   .dbline 217
 02B8           ;                                       sound_flag = 1;
 02B8 81E0              ldi R24,1
 02BA 80931E00          sts _sound_flag,R24
 02BE                   .dbline 218
 02BE           ;                                       TCCR1B = 0x08;  //timer1停止工作
 02BE 88E0              ldi R24,8
 02C0 8EBD              out 0x2e,R24
 02C2                   .dbline 219
 02C2           ;                                       OCR1A = t[music2[note_n]] / period_rate;//取下一个音符
 02C2 80E0              ldi R24,<_music2
 02C4 90E0              ldi R25,>_music2
 02C6 E0911B00          lds R30,_note_n
 02CA FF27              clr R31
 02CC E80F              add R30,R24
 02CE F91F              adc R31,R25
 02D0 E491              lpm R30,Z
 02D2 FF27              clr R31
 02D4 EE0F              lsl R30
 02D6 FF1F              rol R31
 02D8 80E0              ldi R24,<_t
 02DA 90E0              ldi R25,>_t
 02DC E80F              add R30,R24
 02DE F91F              adc R31,R25
 02E0 0081              ldd R16,z+0
 02E2 1181              ldd R17,z+1
 02E4 0E940000          xcall uint2fp
 02E8 1801              movw R2,R16
 02EA 2901              movw R4,R18
 02EC 00E0              ldi R16,<L12
 02EE 10E0              ldi R17,>L12
 02F0 0E940000          xcall lpm32
 02F4 3A93              st -y,R19
 02F6 2A93              st -y,R18
 02F8 1A93              st -y,R17
 02FA 0A93              st -y,R16
 02FC 8101              movw R16,R2
 02FE 9201              movw R18,R4
 0300 0E940000          xcall fpdiv2
 0304 0E940000          xcall fpint
 0308 1BBD              out 0x2b,R17
 030A 0ABD              out 0x2a,R16
 030C                   .dbline 220
 030C           ;                                       int_n = d[music2[note_n]] * note_rate;//取该音符的基本节拍单位
 030C 80E0              ldi R24,<_music2
 030E 90E0              ldi R25,>_music2
 0310 E0911B00          lds R30,_note_n
 0314 FF27              clr R31
 0316 E80F              add R30,R24
 0318 F91F              adc R31,R25
 031A E491              lpm R30,Z
 031C FF27              clr R31
 031E 80E0              ldi R24,<_d
 0320 90E0              ldi R25,>_d
 0322 E80F              add R30,R24
 0324 F91F              adc R31,R25
 0326 2080              ldd R2,z+0
 0328 3324              clr R3
 032A 220C              lsl R2
 032C 331C              rol R3
 032E 30921D00          sts _int_n+1,R3
 0332 20921C00          sts _int_n,R2
 0336                   .dbline 221
 0336           ;                                       note_n++;
 0336 80911B00          lds R24,_note_n
 033A 8F5F              subi R24,255    ; addi 1
 033C 80931B00          sts _note_n,R24
 0340                   .dbline 222
 0340           ;                                       int_n = int_n * music2[note_n]; //计算该音符的节拍值
 0340 80E0              ldi R24,<_music2
 0342 90E0              ldi R25,>_music2
 0344 E0911B00          lds R30,_note_n
 0348 FF27              clr R31
 034A E80F              add R30,R24
 034C F91F              adc R31,R25
 034E 2491              lpm R18,Z
 0350 3327              clr R19
 0352 8101              movw R16,R2
 0354 0E940000          xcall empy16s
 0358 10931D00          sts _int_n+1,R17
 035C 00931C00          sts _int_n,R16
 0360                   .dbline 223
 0360           ;                                       note_n++;
 0360 80911B00          lds R24,_note_n
 0364 8F5F              subi R24,255    ; addi 1
 0366 80931B00          sts _note_n,R24
 036A                   .dbline 224
 036A           ;                                       TCCR1B = 0x0A;          //启动timer1，播放下一个音符
 036A 8AE0              ldi R24,10
 036C 8EBD              out 0x2e,R24
 036E                   .dbline 225
 036E           ;                               }
 036E                   .dbline 226
 036E           ;                       }
 036E 11C0              xjmp L21
 0370           L20:
 0370                   .dbline 228
 0370           ;                       else
 0370           ;                       {
 0370                   .dbline 229
 0370           ;                               if(sound_flag)
 0370 20901E00          lds R2,_sound_flag
 0374 2220              tst R2
 0376 69F0              breq L26
 0378           X9:
 0378                   .dbline 230
 0378           ;                               {
 0378                   .dbline 231
 0378           ;                                       if(flag)
 0378 20901F00          lds R2,_flag
 037C 2220              tst R2
 037E 29F0              breq L28
 0380           X10:
 0380                   .dbline 232
 0380           ;                                       {
 0380                   .dbline 233
 0380           ;                                               PORTA &= ~(1<<3);
 0380 DB98              cbi 0x1b,3
 0382                   .dbline 234
 0382           ;                                               flag = 0;
 0382 2224              clr R2
 0384 20921F00          sts _flag,R2
 0388                   .dbline 235
 0388           ;                                       }
 0388 04C0              xjmp L29
 038A           L28:
 038A                   .dbline 237
 038A           ;                                       else
 038A           ;                                       {
 038A                   .dbline 238
 038A           ;                                               PORTA |= (1<<3);
 038A DB9A              sbi 0x1b,3
 038C                   .dbline 239
 038C           ;                                               flag = 1;
 038C 81E0              ldi R24,1
 038E 80931F00          sts _flag,R24
 0392                   .dbline 240
 0392           ;                                       }
 0392           L29:
 0392                   .dbline 241
 0392           ;                               }
 0392           L26:
 0392                   .dbline 242
 0392           ;                       }
 0392           L21:
 0392                   .dbline 243
 0392           ;               }
 0392           L19:
 0392                   .dbline 244
 0392           ;       }
 0392           L4:
 0392                   .dbline -2
 0392           L2:
 0392                   .dbline 0 ; func end
 0392 1990              ld R1,y+
 0394 1FBE              OUT 63,R1
 0396 F991              ld R31,y+
 0398 E991              ld R30,y+
 039A 9991              ld R25,y+
 039C 8991              ld R24,y+
 039E 3991              ld R19,y+
 03A0 2991              ld R18,y+
 03A2 1991              ld R17,y+
 03A4 0991              ld R16,y+
 03A6 5990              ld R5,y+
 03A8 4990              ld R4,y+
 03AA 3990              ld R3,y+
 03AC 2990              ld R2,y+
 03AE 1990              ld R1,y+
 03B0 1895              reti
 03B2                   .dbend
 03B2                   .dbfunc e delay_ms _delay_ms fV
 03B2           ;            num -> R20
 03B2           ;        delay_i -> R16,R17
                        .even
 03B2           _delay_ms::
 03B2 4A93              st -y,R20
 03B4                   .dbline -1
 03B4                   .dbline 253
 03B4           ;       
 03B4           ;       
 03B4           ; }
 03B4           ; 
 03B4           ; 
 03B4           ; 
 03B4           ; 
 03B4           ; void delay_ms(unsigned int delay_i)
 03B4           ; {
 03B4 08C0              xjmp L32
 03B6           L31:
 03B6                   .dbline 256
 03B6           ;       unsigned char num;
 03B6           ;       while(delay_i > 0)
 03B6           ;       {
 03B6                   .dbline 257
 03B6           ;               for(num = 0;num < 187;num++)
 03B6 4427              clr R20
 03B8 02C0              xjmp L37
 03BA           L34:
 03BA                   .dbline 258
 03BA           ;               {
 03BA                   .dbline 259
 03BA           ;                       asm("nop");
 03BA 0000              nop
 03BC                   .dbline 260
 03BC           ;               }
 03BC           L35:
 03BC                   .dbline 257
 03BC 4395              inc R20
 03BE           L37:
 03BE                   .dbline 257
 03BE 4B3B              cpi R20,187
 03C0 E0F3              brlo L34
 03C2           X17:
 03C2                   .dbline 261
 03C2           ;               delay_i--;
 03C2 0150              subi R16,1
 03C4 1040              sbci R17,0
 03C6                   .dbline 262
 03C6           ;       }
 03C6           L32:
 03C6                   .dbline 255
 03C6 0030              cpi R16,0
 03C8 0107              cpc R16,R17
 03CA A9F7              brne L31
 03CC           X18:
 03CC                   .dbline -2
 03CC           L30:
 03CC                   .dbline 0 ; func end
 03CC 4991              ld R20,y+
 03CE 0895              ret
 03D0                   .dbsym r num 20 c
 03D0                   .dbsym r delay_i 16 i
 03D0                   .dbend
                        .area data(ram, con, rel)
 004F                   .dbfile C:\Users\ASUS\Desktop\AircraftWar\LCD.c
 004F           L39:
 004F                   .blkb 1
                        .area idata
 004F 00                .byte 0
                        .area data(ram, con, rel)
 0050                   .dbfile C:\Users\ASUS\Desktop\AircraftWar\LCD.c
                        .area bss(ram, con, rel)
 0000                   .dbfile C:\Users\ASUS\Desktop\AircraftWar\LCD.c
 0000           L40:
 0000                   .blkb 1
                        .area text(rom, con, rel)
 03D0                   .dbfile C:\Users\ASUS\Desktop\AircraftWar\LCD.c
 03D0                   .dbfunc e read_key _read_key fc
 03D0                   .dbsym s key_time L40 c
 03D0                   .dbsym s key_state L39 c
 03D0           ;      key_press -> R18
 03D0           ;     key_return -> R16
                        .even
 03D0           _read_key::
 03D0 4A93              st -y,R20
 03D2 5A93              st -y,R21
 03D4                   .dbline -1
 03D4                   .dbline 266
 03D4           ; }
 03D4           ; 
 03D4           ; unsigned char read_key(void)
 03D4           ; {
 03D4                   .dbline 268
 03D4           ;       static unsigned char key_state = 0,key_time;
 03D4           ;       unsigned char key_press,key_return = nokey;
 03D4 0027              clr R16
 03D6                   .dbline 270
 03D6           ; 
 03D6           ;       key_press = key_input;//读取按键电平
 03D6 89B3              in R24,0x19
 03D8 8078              andi R24,128
 03DA 20B3              in R18,0x10
 03DC 2870              andi R18,8
 03DE 282B              or R18,R24
 03E0                   .dbline 271
 03E0           ;       switch(key_state)
 03E0 40914F00          lds R20,L39
 03E4 5527              clr R21
 03E6 4030              cpi R20,0
 03E8 4507              cpc R20,R21
 03EA 71F0              breq L44
 03EC           X19:
 03EC 4130              cpi R20,1
 03EE E0E0              ldi R30,0
 03F0 5E07              cpc R21,R30
 03F2 89F0              breq L47
 03F4           X20:
 03F4 4230              cpi R20,2
 03F6 E0E0              ldi R30,0
 03F8 5E07              cpc R21,R30
 03FA 11F1              breq L54
 03FC           X21:
 03FC 4330              cpi R20,3
 03FE E0E0              ldi R30,0
 0400 5E07              cpc R21,R30
 0402 09F4              brne X32
 0404 36C0              xjmp L59
 0406           X32:
 0406           X22:
 0406 49C0              xjmp L41
 0408           L44:
 0408                   .dbline 274
 0408           ;       {
 0408           ;               case key_state_0:
 0408           ;                       if(key_press != 0x88)   //按键按下，转确认状态
 0408 2838              cpi R18,136
 040A 09F4              brne X33
 040C 46C0              xjmp L42
 040E           X33:
 040E           X23:
 040E                   .dbline 275
 040E           ;                               key_state = key_state_1;
 040E 81E0              ldi R24,1
 0410 80934F00          sts L39,R24
 0414                   .dbline 276
 0414           ;                       break;
 0414 42C0              xjmp L42
 0416           L47:
 0416                   .dbline 278
 0416           ;               case key_state_1:
 0416           ;                       if(key_press != 0x88)
 0416 2838              cpi R18,136
 0418 79F0              breq L48
 041A           X24:
 041A                   .dbline 279
 041A           ;                       {
 041A                   .dbline 280
 041A           ;                               if(key_press == 0x80)   //SW8按键按下，因为无长按，所以直接转状态3判定是否松开
 041A 2038              cpi R18,128
 041C 21F4              brne L50
 041E           X25:
 041E                   .dbline 281
 041E           ;                               {
 041E                   .dbline 282
 041E           ;                                       key_state = key_state_3;
 041E 83E0              ldi R24,3
 0420 80934F00          sts L39,R24
 0424                   .dbline 283
 0424           ;                                       key_return = SW8;
 0424 01E0              ldi R16,1
 0426                   .dbline 284
 0426           ;                               }
 0426           L50:
 0426                   .dbline 285
 0426           ;                               if(key_press == 0x08)   //key1按下，转状态2判定为长按还是短按
 0426 2830              cpi R18,8
 0428 C1F5              brne L42
 042A           X26:
 042A                   .dbline 286
 042A           ;                               {       
 042A                   .dbline 287
 042A           ;                                       key_state = key_state_2;
 042A 82E0              ldi R24,2
 042C 80934F00          sts L39,R24
 0430                   .dbline 288
 0430           ;                                       key_time = 0;
 0430 2224              clr R2
 0432 20920000          sts L40,R2
 0436                   .dbline 289
 0436           ;                               }
 0436                   .dbline 290
 0436           ;                       }
 0436 31C0              xjmp L42
 0438           L48:
 0438                   .dbline 292
 0438           ;                       else                            //按键无按下（抖动）
 0438           ;                               key_state = key_state_0;
 0438 2224              clr R2
 043A 20924F00          sts L39,R2
 043E                   .dbline 293
 043E           ;                       break;
 043E 2DC0              xjmp L42
 0440           L54:
 0440                   .dbline 295
 0440           ;               case key_state_2:
 0440           ;                       if(key_press == 0x88)   //按下时间不过1S，为短按
 0440 2838              cpi R18,136
 0442 39F4              brne L55
 0444           X27:
 0444                   .dbline 296
 0444           ;                       {       
 0444                   .dbline 297
 0444           ;                               key_state = key_state_0;
 0444 2224              clr R2
 0446 20924F00          sts L39,R2
 044A                   .dbline 298
 044A           ;                               key_time = 0;
 044A 20920000          sts L40,R2
 044E                   .dbline 299
 044E           ;                               key_return = key1_short;
 044E 02E0              ldi R16,2
 0450                   .dbline 300
 0450           ;                       }
 0450 24C0              xjmp L42
 0452           L55:
 0452                   .dbline 301
 0452           ;                       else if((++key_time) >= 100)    //按下时间超过1S，为长按
 0452 80910000          lds R24,L40
 0456 8F5F              subi R24,255    ; addi 1
 0458 282E              mov R2,R24
 045A 20920000          sts L40,R2
 045E 8436              cpi R24,100
 0460 E0F0              brlo L42
 0462           X28:
 0462                   .dbline 302
 0462           ;                       {
 0462                   .dbline 303
 0462           ;                               key_state = key_state_3;
 0462 83E0              ldi R24,3
 0464 80934F00          sts L39,R24
 0468                   .dbline 304
 0468           ;                               key_time = 0;
 0468 2224              clr R2
 046A 20920000          sts L40,R2
 046E                   .dbline 305
 046E           ;                               key_return = key1_long;
 046E 03E0              ldi R16,3
 0470                   .dbline 306
 0470           ;                       }
 0470                   .dbline 307
 0470           ;                       break;
 0470 14C0              xjmp L42
 0472           L59:
 0472                   .dbline 309
 0472           ;               case key_state_3:
 0472           ;                       if(key_press == 0x88)   //无按键按下了
 0472 2838              cpi R18,136
 0474 21F4              brne L60
 0476           X29:
 0476                   .dbline 310
 0476           ;                               key_state = 0;
 0476 2224              clr R2
 0478 20924F00          sts L39,R2
 047C 0EC0              xjmp L42
 047E           L60:
 047E                   .dbline 311
 047E           ;                       else if(((++key_time) >= 50)  && (key_press == 0x08))   //key1长按后每隔0.5S为下一次长按
 047E 80910000          lds R24,L40
 0482 8F5F              subi R24,255    ; addi 1
 0484 282E              mov R2,R24
 0486 20920000          sts L40,R2
 048A 8233              cpi R24,50
 048C 30F0              brlo L42
 048E           X30:
 048E 2830              cpi R18,8
 0490 21F4              brne L42
 0492           X31:
 0492                   .dbline 312
 0492           ;                       {
 0492                   .dbline 313
 0492           ;                               key_time = 0;
 0492 2224              clr R2
 0494 20920000          sts L40,R2
 0498                   .dbline 314
 0498           ;                               key_return = key1_long;
 0498 03E0              ldi R16,3
 049A                   .dbline 315
 049A           ;                       }
 049A                   .dbline 316
 049A           ;                       break;
 049A           L41:
 049A           L42:
 049A                   .dbline 318
 049A           ;       }
 049A           ;       return key_return;
 049A                   .dbline -2
 049A           L38:
 049A                   .dbline 0 ; func end
 049A 5991              ld R21,y+
 049C 4991              ld R20,y+
 049E 0895              ret
 04A0                   .dbsym r key_press 18 c
 04A0                   .dbsym r key_return 16 c
 04A0                   .dbend
 04A0                   .dbfunc e HC595_send_byte _HC595_send_byte fV
 04A0           ;              i -> R20
 04A0           ;        SndData -> R10
                        .even
 04A0           _HC595_send_byte::
 04A0 AA92              st -y,R10
 04A2 4A93              st -y,R20
 04A4 A02E              mov R10,R16
 04A6                   .dbline -1
 04A6                   .dbline 322
 04A6           ; }
 04A6           ; 
 04A6           ; void HC595_send_byte(unsigned char SndData)
 04A6           ; {
 04A6                   .dbline 325
 04A6           ;     //完成595的驱动函数，实现通过595把串行数据发送到Q0――Q7
 04A6           ;       unsigned char i;
 04A6           ;       for(i=0;i<8;i++)
 04A6 4427              clr R20
 04A8 0EC0              xjmp L68
 04AA           L65:
 04AA                   .dbline 326
 04AA           ;       {
 04AA                   .dbline 327
 04AA           ;               if((SndData&(1<<(7-i)))==0)
 04AA 17E0              ldi R17,7
 04AC 141B              sub R17,R20
 04AE 01E0              ldi R16,1
 04B0 0E940000          xcall lsl8
 04B4 2A2C              mov R2,R10
 04B6 2022              and R2,R16
 04B8 11F4              brne L69
 04BA           X34:
 04BA                   .dbline 328
 04BA           ;                       CLR_DS();
 04BA D898              cbi 0x1b,0
 04BC 01C0              xjmp L70
 04BE           L69:
 04BE                   .dbline 330
 04BE           ;               else
 04BE           ;                       SET_DS();
 04BE D89A              sbi 0x1b,0
 04C0           L70:
 04C0                   .dbline 331
 04C0           ;               CLR_SHCLK();
 04C0 C198              cbi 0x18,1
 04C2                   .dbline 332
 04C2           ;               SET_SHCLK();
 04C2 C19A              sbi 0x18,1
 04C4                   .dbline 333
 04C4           ;       }
 04C4           L66:
 04C4                   .dbline 325
 04C4 4395              inc R20
 04C6           L68:
 04C6                   .dbline 325
 04C6 4830              cpi R20,8
 04C8 80F3              brlo L65
 04CA           X35:
 04CA                   .dbline 334
 04CA           ;       CLR_STCLK();
 04CA C098              cbi 0x18,0
 04CC                   .dbline 335
 04CC           ;       SET_STCLK();
 04CC C09A              sbi 0x18,0
 04CE                   .dbline -2
 04CE           L64:
 04CE                   .dbline 0 ; func end
 04CE 4991              ld R20,y+
 04D0 A990              ld R10,y+
 04D2 0895              ret
 04D4                   .dbsym r i 20 c
 04D4                   .dbsym r SndData 10 c
 04D4                   .dbend
 04D4                   .dbfunc e port_init _port_init fV
                        .even
 04D4           _port_init::
 04D4                   .dbline -1
 04D4                   .dbline 339
 04D4           ; }
 04D4           ; 
 04D4           ; void port_init(void)
 04D4           ; {
 04D4                   .dbline 341
 04D4           ;  //添加GPIO初始化
 04D4           ;       DDRA |= (1<<4)|(1<<5)|(1<<6);
 04D4 8AB3              in R24,0x1a
 04D6 8067              ori R24,112
 04D8 8ABB              out 0x1a,R24
 04DA                   .dbline 342
 04DA           ;       DDRB |= (1<<4)|(1<<5)|(1<<7);
 04DA 87B3              in R24,0x17
 04DC 806B              ori R24,176
 04DE 87BB              out 0x17,R24
 04E0                   .dbline 344
 04E0           ;  
 04E0           ;       DDRA|=(1<<0);
 04E0 D09A              sbi 0x1a,0
 04E2                   .dbline 345
 04E2           ;       DDRA&=~(1<<7);
 04E2 D798              cbi 0x1a,7
 04E4                   .dbline 346
 04E4           ;       PORTA|=(1<<7);
 04E4 DF9A              sbi 0x1b,7
 04E6                   .dbline 347
 04E6           ;       DDRB|=(1<<0)|(1<<1);
 04E6 87B3              in R24,0x17
 04E8 8360              ori R24,3
 04EA 87BB              out 0x17,R24
 04EC                   .dbline 348
 04EC           ;       PORTB|=(1<<1);
 04EC C19A              sbi 0x18,1
 04EE                   .dbline 349
 04EE           ;       DDRD|=0xf0;
 04EE 81B3              in R24,0x11
 04F0 806F              ori R24,240
 04F2 81BB              out 0x11,R24
 04F4                   .dbline 350
 04F4           ;       PORTD&=0X0F;
 04F4 82B3              in R24,0x12
 04F6 8F70              andi R24,15
 04F8 82BB              out 0x12,R24
 04FA                   .dbline 351
 04FA           ;       DDRD&=~(1<<3);
 04FA 8B98              cbi 0x11,3
 04FC                   .dbline 352
 04FC           ;       PORTD|=(1<<3);
 04FC 939A              sbi 0x12,3
 04FE                   .dbline 354
 04FE           ;       
 04FE           ;       DDRA |= (1 << 3);
 04FE D39A              sbi 0x1a,3
 0500                   .dbline 355
 0500           ;       PORTA |= (1 << 3);
 0500 DB9A              sbi 0x1b,3
 0502                   .dbline -2
 0502           L71:
 0502                   .dbline 0 ; func end
 0502 0895              ret
 0504                   .dbend
 0504                   .dbfunc e timer0_init _timer0_init fV
                        .even
 0504           _timer0_init::
 0504                   .dbline -1
 0504                   .dbline 359
 0504           ; }
 0504           ; 
 0504           ; void timer0_init(void)
 0504           ; {
 0504                   .dbline 360
 0504           ;       TCCR0 = 0x00; //stop
 0504 2224              clr R2
 0506 23BE              out 0x33,R2
 0508                   .dbline 361
 0508           ;       TCNT0 = 0x1A; //set count
 0508 8AE1              ldi R24,26
 050A 82BF              out 0x32,R24
 050C                   .dbline 362
 050C           ;       OCR0  = 0xE6;  //set compare
 050C 86EE              ldi R24,230
 050E 8CBF              out 0x3c,R24
 0510                   .dbline 363
 0510           ;       TCCR0 = 0x03; //start timer
 0510 83E0              ldi R24,3
 0512 83BF              out 0x33,R24
 0514                   .dbline -2
 0514           L72:
 0514                   .dbline 0 ; func end
 0514 0895              ret
 0516                   .dbend
                        .area vector(rom, abs)
                        .org 36
 0024 0C948B02          jmp _timer0_ovf_isr
                        .area text(rom, con, rel)
 0516                   .dbfile C:\Users\ASUS\Desktop\AircraftWar\LCD.c
 0516                   .dbfunc e timer0_ovf_isr _timer0_ovf_isr fV
                        .even
 0516           _timer0_ovf_isr::
 0516 0A92              st -y,R0
 0518 1A92              st -y,R1
 051A 2A92              st -y,R2
 051C 3A92              st -y,R3
 051E 4A92              st -y,R4
 0520 5A92              st -y,R5
 0522 6A92              st -y,R6
 0524 7A92              st -y,R7
 0526 8A92              st -y,R8
 0528 9A92              st -y,R9
 052A 0A93              st -y,R16
 052C 1A93              st -y,R17
 052E 2A93              st -y,R18
 0530 3A93              st -y,R19
 0532 8A93              st -y,R24
 0534 9A93              st -y,R25
 0536 AA93              st -y,R26
 0538 BA93              st -y,R27
 053A EA93              st -y,R30
 053C FA93              st -y,R31
 053E 0FB6              IN R0,63
 0540 0A92              st -y,R0
 0542 4A93              st -y,R20
 0544 5A93              st -y,R21
 0546                   .dbline -1
 0546                   .dbline 368
 0546           ; }
 0546           ; 
 0546           ; #pragma interrupt_handler timer0_ovf_isr:iv_TIM0_OVF
 0546           ; void timer0_ovf_isr(void)
 0546           ; {
 0546                   .dbline 369
 0546           ;       TCNT0 = 0x1A; //reload counter value
 0546 8AE1              ldi R24,26
 0548 82BF              out 0x32,R24
 054A                   .dbline 370
 054A           ;       PORTD|=0xf0;
 054A 82B3              in R24,0x12
 054C 806F              ori R24,240
 054E 82BB              out 0x12,R24
 0550                   .dbline 373
 0550           ;       //正常计数时，正常送数，点亮对应的数码管
 0550           ;       //进行调时时，正常送数，每隔0.3秒点亮对应数码管，实现闪烁功能
 0550           ;       if(post == 1)
 0550 80913500          lds R24,_post
 0554 8130              cpi R24,1
 0556 89F4              brne L74
 0558           X36:
 0558                   .dbline 374
 0558           ;               HC595_send_byte(led_7[disp_buff[post]] & ~(1<<7));
 0558 80E0              ldi R24,<_disp_buff
 055A 90E0              ldi R25,>_disp_buff
 055C E0913500          lds R30,_post
 0560 FF27              clr R31
 0562 E80F              add R30,R24
 0564 F91F              adc R31,R25
 0566 E081              ldd R30,z+0
 0568 FF27              clr R31
 056A 80E0              ldi R24,<_led_7
 056C 90E0              ldi R25,>_led_7
 056E E80F              add R30,R24
 0570 F91F              adc R31,R25
 0572 0081              ldd R16,z+0
 0574 0F77              andi R16,127
 0576 94DF              xcall _HC595_send_byte
 0578 0FC0              xjmp L75
 057A           L74:
 057A                   .dbline 376
 057A           ;       else
 057A           ;               HC595_send_byte(led_7[disp_buff[post]]);
 057A 80E0              ldi R24,<_disp_buff
 057C 90E0              ldi R25,>_disp_buff
 057E E0913500          lds R30,_post
 0582 FF27              clr R31
 0584 E80F              add R30,R24
 0586 F91F              adc R31,R25
 0588 E081              ldd R30,z+0
 058A FF27              clr R31
 058C 80E0              ldi R24,<_led_7
 058E 90E0              ldi R25,>_led_7
 0590 E80F              add R30,R24
 0592 F91F              adc R31,R25
 0594 0081              ldd R16,z+0
 0596 84DF              xcall _HC595_send_byte
 0598           L75:
 0598                   .dbline 377
 0598           ;       if(isflash == secflash && time_300ms_ok && (post == 2 || post == 3))
 0598 80913D00          lds R24,_isflash
 059C 8130              cpi R24,1
 059E 79F4              brne L76
 05A0           X37:
 05A0 20903900          lds R2,_time_300ms_ok
 05A4 2220              tst R2
 05A6 59F0              breq L76
 05A8           X38:
 05A8 20903500          lds R2,_post
 05AC 822D              mov R24,R2
 05AE 8230              cpi R24,2
 05B0 11F0              breq L78
 05B2           X39:
 05B2 8330              cpi R24,3
 05B4 21F4              brne L76
 05B6           X40:
 05B6           L78:
 05B6                   .dbline 378
 05B6           ;               PORTD |= 0XF0;
 05B6 82B3              in R24,0x12
 05B8 806F              ori R24,240
 05BA 82BB              out 0x12,R24
 05BC 1FC0              xjmp L77
 05BE           L76:
 05BE                   .dbline 379
 05BE           ;       else if(isflash == minflash && time_300ms_ok && (post == 0 || post == 1))
 05BE 80913D00          lds R24,_isflash
 05C2 8230              cpi R24,2
 05C4 79F4              brne L79
 05C6           X41:
 05C6 20903900          lds R2,_time_300ms_ok
 05CA 2220              tst R2
 05CC 59F0              breq L79
 05CE           X42:
 05CE 20903500          lds R2,_post
 05D2 2220              tst R2
 05D4 19F0              breq L81
 05D6           X43:
 05D6 822D              mov R24,R2
 05D8 8130              cpi R24,1
 05DA 21F4              brne L79
 05DC           X44:
 05DC           L81:
 05DC                   .dbline 380
 05DC           ;               PORTD |= 0XF0;
 05DC 82B3              in R24,0x12
 05DE 806F              ori R24,240
 05E0 82BB              out 0x12,R24
 05E2 0CC0              xjmp L80
 05E4           L79:
 05E4                   .dbline 382
 05E4           ;       else
 05E4           ;               PORTD&=~(1<<(7-post));
 05E4 20903500          lds R2,_post
 05E8 17E0              ldi R17,7
 05EA 1219              sub R17,R2
 05EC 01E0              ldi R16,1
 05EE 0E940000          xcall lsl8
 05F2 202E              mov R2,R16
 05F4 2094              com R2
 05F6 32B2              in R3,0x12
 05F8 3220              and R3,R2
 05FA 32BA              out 0x12,R3
 05FC           L80:
 05FC           L77:
 05FC                   .dbline 383
 05FC           ;       if(++post>=4)
 05FC 40913500          lds R20,_post
 0600 4F5F              subi R20,255    ; addi 1
 0602 40933500          sts _post,R20
 0606 4430              cpi R20,4
 0608 18F0              brlo L82
 060A           X45:
 060A                   .dbline 384
 060A           ;               post=0;
 060A 2224              clr R2
 060C 20923500          sts _post,R2
 0610           L82:
 0610                   .dbline 385
 0610           ;       if(++time_10ms_count >= 5)
 0610 40913600          lds R20,_time_10ms_count
 0614 4F5F              subi R20,255    ; addi 1
 0616 40933600          sts _time_10ms_count,R20
 061A 4530              cpi R20,5
 061C 30F0              brlo L84
 061E           X46:
 061E                   .dbline 386
 061E           ;       {
 061E                   .dbline 387
 061E           ;               time_10ms_ok = 1;
 061E 81E0              ldi R24,1
 0620 80933700          sts _time_10ms_ok,R24
 0624                   .dbline 388
 0624           ;               time_10ms_count = 0;
 0624 2224              clr R2
 0626 20923600          sts _time_10ms_count,R2
 062A                   .dbline 389
 062A           ;       }
 062A           L84:
 062A                   .dbline 390
 062A           ;       if(++time_300ms_count >= 150)
 062A 40913800          lds R20,_time_300ms_count
 062E 4F5F              subi R20,255    ; addi 1
 0630 40933800          sts _time_300ms_count,R20
 0634 4639              cpi R20,150
 0636 40F0              brlo L86
 0638           X47:
 0638                   .dbline 391
 0638           ;       {
 0638                   .dbline 392
 0638           ;               time_300ms_ok = ~time_300ms_ok;
 0638 20903900          lds R2,_time_300ms_ok
 063C 2094              com R2
 063E 20923900          sts _time_300ms_ok,R2
 0642                   .dbline 393
 0642           ;               time_300ms_count = 0;
 0642 2224              clr R2
 0644 20923800          sts _time_300ms_count,R2
 0648                   .dbline 394
 0648           ;       }
 0648           L86:
 0648                   .dbline 395
 0648           ;       if(++time_1s_count >= 500)
 0648 40913A00          lds R20,_time_1s_count
 064C 50913B00          lds R21,_time_1s_count+1
 0650 4F5F              subi R20,255  ; offset = 1
 0652 5F4F              sbci R21,255
 0654 50933B00          sts _time_1s_count+1,R21
 0658 40933A00          sts _time_1s_count,R20
 065C 443F              cpi R20,244
 065E E1E0              ldi R30,1
 0660 5E07              cpc R21,R30
 0662 48F0              brlo L88
 0664           X48:
 0664                   .dbline 396
 0664           ;       {
 0664                   .dbline 397
 0664           ;               time_1s_ok = 1;
 0664 81E0              ldi R24,1
 0666 80933C00          sts _time_1s_ok,R24
 066A                   .dbline 398
 066A           ;               time_1s_count = 0;
 066A 2224              clr R2
 066C 3324              clr R3
 066E 30923B00          sts _time_1s_count+1,R3
 0672 20923A00          sts _time_1s_count,R2
 0676                   .dbline 399
 0676           ;       }
 0676           L88:
 0676                   .dbline -2
 0676           L73:
 0676                   .dbline 0 ; func end
 0676 5991              ld R21,y+
 0678 4991              ld R20,y+
 067A 0990              ld R0,y+
 067C 0FBE              OUT 63,R0
 067E F991              ld R31,y+
 0680 E991              ld R30,y+
 0682 B991              ld R27,y+
 0684 A991              ld R26,y+
 0686 9991              ld R25,y+
 0688 8991              ld R24,y+
 068A 3991              ld R19,y+
 068C 2991              ld R18,y+
 068E 1991              ld R17,y+
 0690 0991              ld R16,y+
 0692 9990              ld R9,y+
 0694 8990              ld R8,y+
 0696 7990              ld R7,y+
 0698 6990              ld R6,y+
 069A 5990              ld R5,y+
 069C 4990              ld R4,y+
 069E 3990              ld R3,y+
 06A0 2990              ld R2,y+
 06A2 1990              ld R1,y+
 06A4 0990              ld R0,y+
 06A6 1895              reti
 06A8                   .dbend
 06A8                   .dbfunc e uart0_init _uart0_init fV
                        .even
 06A8           _uart0_init::
 06A8                   .dbline -1
 06A8                   .dbline 407
 06A8           ; }
 06A8           ;  
 06A8           ; 
 06A8           ; //UART0 initialize
 06A8           ; // desired baud rate: 9600
 06A8           ; // actual: baud rate:9600 (0.0%)
 06A8           ; void uart0_init(void)
 06A8           ; {
 06A8                   .dbline 408
 06A8           ;  UCSRB = 0x00; //disable while setting baud rate
 06A8 2224              clr R2
 06AA 2AB8              out 0xa,R2
 06AC                   .dbline 409
 06AC           ;  UCSRA = 0x00;
 06AC 2BB8              out 0xb,R2
 06AE                   .dbline 410
 06AE           ;  UCSRC = BIT(URSEL) | 0x06;
 06AE 86E8              ldi R24,134
 06B0 80BD              out 0x20,R24
 06B2                   .dbline 411
 06B2           ;  UBRRL = 0x2F; //set baud rate lo
 06B2 8FE2              ldi R24,47
 06B4 89B9              out 0x9,R24
 06B6                   .dbline 412
 06B6           ;  UBRRH = 0x00; //set baud rate hi
 06B6 20BC              out 0x20,R2
 06B8                   .dbline 413
 06B8           ;  UCSRB = 0x18;
 06B8 88E1              ldi R24,24
 06BA 8AB9              out 0xa,R24
 06BC                   .dbline -2
 06BC           L90:
 06BC                   .dbline 0 ; func end
 06BC 0895              ret
 06BE                   .dbend
 06BE                   .dbfunc e spi_init _spi_init fV
                        .even
 06BE           _spi_init::
 06BE                   .dbline -1
 06BE                   .dbline 418
 06BE           ; }
 06BE           ; //SPI initialize
 06BE           ; // clock rate: 1843199hz
 06BE           ; void spi_init(void)
 06BE           ; {
 06BE                   .dbline 420
 06BE           ;  //SPI初始化
 06BE           ;  SPCR |= (1<<6)|(1<<4);
 06BE 8DB1              in R24,0xd
 06C0 8065              ori R24,80
 06C2 8DB9              out 0xd,R24
 06C4                   .dbline -2
 06C4           L91:
 06C4                   .dbline 0 ; func end
 06C4 0895              ret
 06C6                   .dbend
 06C6                   .dbfunc e init_devices _init_devices fV
                        .even
 06C6           _init_devices::
 06C6                   .dbline -1
 06C6                   .dbline 425
 06C6           ; }
 06C6           ; 
 06C6           ; //call this routine to initialize all peripherals
 06C6           ; void init_devices(void)
 06C6           ; {
 06C6                   .dbline 427
 06C6           ;  //stop errant interrupts until set up
 06C6           ;  CLI(); //disable all interrupts
 06C6 F894              cli
 06C8                   .dbline 428
 06C8           ;  port_init();
 06C8 05DF              xcall _port_init
 06CA                   .dbline 429
 06CA           ;  spi_init();
 06CA F9DF              xcall _spi_init
 06CC                   .dbline 430
 06CC           ;  uart0_init();
 06CC EDDF              xcall _uart0_init
 06CE                   .dbline 431
 06CE           ;  timer0_init();
 06CE 1ADF              xcall _timer0_init
 06D0                   .dbline 432
 06D0           ;  timer1_init();
 06D0 97DC              xcall _timer1_init
 06D2                   .dbline 434
 06D2           ; 
 06D2           ;  MCUCR = 0x00;
 06D2 2224              clr R2
 06D4 25BE              out 0x35,R2
 06D6                   .dbline 435
 06D6           ;  GICR  = 0x00;
 06D6 2BBE              out 0x3b,R2
 06D8                   .dbline 436
 06D8           ;  TIMSK = 0x01; //timer interrupt sources
 06D8 81E0              ldi R24,1
 06DA 89BF              out 0x39,R24
 06DC                   .dbline 437
 06DC           ;  TIMSK |= 0x10;
 06DC 89B7              in R24,0x39
 06DE 8061              ori R24,16
 06E0 89BF              out 0x39,R24
 06E2                   .dbline 438
 06E2           ;  SEI(); //re-enable interrupts
 06E2 7894              sei
 06E4                   .dbline -2
 06E4           L92:
 06E4                   .dbline 0 ; func end
 06E4 0895              ret
 06E6                   .dbend
 06E6                   .dbfunc e UARTSend _UARTSend fV
 06E6           ;           data -> R16
                        .even
 06E6           _UARTSend::
 06E6                   .dbline -1
 06E6                   .dbline 443
 06E6           ;  //all peripherals are now initialized
 06E6           ; }
 06E6           ; 
 06E6           ; void UARTSend(unsigned char data)
 06E6           ; {
 06E6           L94:
 06E6                   .dbline 444
 06E6           ;     while ( !( UCSRA & (1<<UDRE)) );
 06E6           L95:
 06E6                   .dbline 444
 06E6 5D9B              sbis 0xb,5
 06E8 FECF              rjmp L94
 06EA           X49:
 06EA                   .dbline 445
 06EA           ;     UDR = data;
 06EA 0CB9              out 0xc,R16
 06EC                   .dbline -2
 06EC           L93:
 06EC                   .dbline 0 ; func end
 06EC 0895              ret
 06EE                   .dbsym r data 16 c
 06EE                   .dbend
 06EE                   .dbfunc e plane_left_move _plane_left_move fV
                        .even
 06EE           _plane_left_move::
 06EE                   .dbline -1
 06EE                   .dbline 451
 06EE           ; }
 06EE           ; 
 06EE           ; 
 06EE           ; 
 06EE           ; void plane_left_move()
 06EE           ; {
 06EE                   .dbline 452
 06EE           ;       LCD_set_XY(plane_x,plane_y);            //清除飞机残影
 06EE 20914C00          lds R18,_plane_y
 06F2 3327              clr R19
 06F4 00914B00          lds R16,_plane_x
 06F8 1127              clr R17
 06FA 0E940000          xcall _LCD_set_XY
 06FE                   .dbline 453
 06FE           ;       LCD_write_byte(0x00,1);
 06FE 21E0              ldi R18,1
 0700 30E0              ldi R19,0
 0702 0027              clr R16
 0704 1127              clr R17
 0706 0E940000          xcall _LCD_write_byte
 070A                   .dbline 454
 070A           ;       LCD_write_byte(0x00,1);
 070A 21E0              ldi R18,1
 070C 30E0              ldi R19,0
 070E 0027              clr R16
 0710 1127              clr R17
 0712 0E940000          xcall _LCD_write_byte
 0716                   .dbline 455
 0716           ;       LCD_write_byte(0x00,1);
 0716 21E0              ldi R18,1
 0718 30E0              ldi R19,0
 071A 0027              clr R16
 071C 1127              clr R17
 071E 0E940000          xcall _LCD_write_byte
 0722                   .dbline 456
 0722           ;       LCD_write_byte(0x00,1);
 0722 21E0              ldi R18,1
 0724 30E0              ldi R19,0
 0726 0027              clr R16
 0728 1127              clr R17
 072A 0E940000          xcall _LCD_write_byte
 072E                   .dbline 457
 072E           ;       if(plane_x > 0)
 072E 80E0              ldi R24,0
 0730 20904B00          lds R2,_plane_x
 0734 8215              cp R24,R2
 0736 20F4              brsh L98
 0738           X50:
 0738                   .dbline 458
 0738           ;               plane_x--;
 0738 822D              mov R24,R2
 073A 8150              subi R24,1
 073C 80934B00          sts _plane_x,R24
 0740           L98:
 0740                   .dbline 459
 0740           ;       LCD_set_XY(plane_x,plane_y);            //画出移动后的飞机
 0740 20914C00          lds R18,_plane_y
 0744 3327              clr R19
 0746 00914B00          lds R16,_plane_x
 074A 1127              clr R17
 074C 0E940000          xcall _LCD_set_XY
 0750                   .dbline 460
 0750           ;       LCD_write_byte(0xf8,1);
 0750 21E0              ldi R18,1
 0752 30E0              ldi R19,0
 0754 08EF              ldi R16,248
 0756 10E0              ldi R17,0
 0758 0E940000          xcall _LCD_write_byte
 075C                   .dbline 461
 075C           ;       LCD_write_byte(0x20,1);
 075C 21E0              ldi R18,1
 075E 30E0              ldi R19,0
 0760 00E2              ldi R16,32
 0762 10E0              ldi R17,0
 0764 0E940000          xcall _LCD_write_byte
 0768                   .dbline 462
 0768           ;       LCD_write_byte(0x20,1);
 0768 21E0              ldi R18,1
 076A 30E0              ldi R19,0
 076C 00E2              ldi R16,32
 076E 10E0              ldi R17,0
 0770 0E940000          xcall _LCD_write_byte
 0774                   .dbline 463
 0774           ;       LCD_write_byte(0xf8,1);
 0774 21E0              ldi R18,1
 0776 30E0              ldi R19,0
 0778 08EF              ldi R16,248
 077A 10E0              ldi R17,0
 077C                   .dbline -2
 077C           L97:
 077C                   .dbline 0 ; func end
 077C 0C940000          xjmp _LCD_write_byte
 0780                   .dbend
 0780                   .dbfunc e plane_right_move _plane_right_move fV
                        .even
 0780           _plane_right_move::
 0780                   .dbline -1
 0780                   .dbline 467
 0780           ; }
 0780           ; 
 0780           ; void plane_right_move()
 0780           ; {
 0780                   .dbline 468
 0780           ;       LCD_set_XY(plane_x,plane_y);
 0780 20914C00          lds R18,_plane_y
 0784 3327              clr R19
 0786 00914B00          lds R16,_plane_x
 078A 1127              clr R17
 078C 0E940000          xcall _LCD_set_XY
 0790                   .dbline 469
 0790           ;       LCD_write_byte(0x00,1);
 0790 21E0              ldi R18,1
 0792 30E0              ldi R19,0
 0794 0027              clr R16
 0796 1127              clr R17
 0798 0E940000          xcall _LCD_write_byte
 079C                   .dbline 470
 079C           ;       LCD_write_byte(0x00,1);
 079C 21E0              ldi R18,1
 079E 30E0              ldi R19,0
 07A0 0027              clr R16
 07A2 1127              clr R17
 07A4 0E940000          xcall _LCD_write_byte
 07A8                   .dbline 471
 07A8           ;       LCD_write_byte(0x00,1);
 07A8 21E0              ldi R18,1
 07AA 30E0              ldi R19,0
 07AC 0027              clr R16
 07AE 1127              clr R17
 07B0 0E940000          xcall _LCD_write_byte
 07B4                   .dbline 472
 07B4           ;       LCD_write_byte(0x00,1);
 07B4 21E0              ldi R18,1
 07B6 30E0              ldi R19,0
 07B8 0027              clr R16
 07BA 1127              clr R17
 07BC 0E940000          xcall _LCD_write_byte
 07C0                   .dbline 473
 07C0           ;       if(plane_x < 80)
 07C0 80914B00          lds R24,_plane_x
 07C4 8035              cpi R24,80
 07C6 18F4              brsh L101
 07C8           X51:
 07C8                   .dbline 474
 07C8           ;               plane_x++;
 07C8 8F5F              subi R24,255    ; addi 1
 07CA 80934B00          sts _plane_x,R24
 07CE           L101:
 07CE                   .dbline 475
 07CE           ;       LCD_set_XY(plane_x,plane_y);
 07CE 20914C00          lds R18,_plane_y
 07D2 3327              clr R19
 07D4 00914B00          lds R16,_plane_x
 07D8 1127              clr R17
 07DA 0E940000          xcall _LCD_set_XY
 07DE                   .dbline 476
 07DE           ;       LCD_write_byte(0xf8,1);
 07DE 21E0              ldi R18,1
 07E0 30E0              ldi R19,0
 07E2 08EF              ldi R16,248
 07E4 10E0              ldi R17,0
 07E6 0E940000          xcall _LCD_write_byte
 07EA                   .dbline 477
 07EA           ;       LCD_write_byte(0x20,1);
 07EA 21E0              ldi R18,1
 07EC 30E0              ldi R19,0
 07EE 00E2              ldi R16,32
 07F0 10E0              ldi R17,0
 07F2 0E940000          xcall _LCD_write_byte
 07F6                   .dbline 478
 07F6           ;       LCD_write_byte(0x20,1);
 07F6 21E0              ldi R18,1
 07F8 30E0              ldi R19,0
 07FA 00E2              ldi R16,32
 07FC 10E0              ldi R17,0
 07FE 0E940000          xcall _LCD_write_byte
 0802                   .dbline 479
 0802           ;       LCD_write_byte(0xf8,1);
 0802 21E0              ldi R18,1
 0804 30E0              ldi R19,0
 0806 08EF              ldi R16,248
 0808 10E0              ldi R17,0
 080A                   .dbline -2
 080A           L100:
 080A                   .dbline 0 ; func end
 080A 0C940000          xjmp _LCD_write_byte
 080E                   .dbend
 080E                   .dbfunc e plane_is_die _plane_is_die fc
                        .even
 080E           _plane_is_die::
 080E 4A93              st -y,R20
 0810 5A93              st -y,R21
 0812                   .dbline -1
 0812                   .dbline 483
 0812           ; }
 0812           ; 
 0812           ; unsigned char plane_is_die()
 0812           ; {
 0812                   .dbline 484
 0812           ;     if((plane_x == layout5[0]) || (plane_x == layout5[0] + 1) || (plane_x == layout5[0] + 2) || (plane_x == layout5[0] + 3) || (plane_x == layout5[0] + 4))
 0812 30904B00          lds R3,_plane_x
 0816 50904900          lds R5,_layout5
 081A 3514              cp R3,R5
 081C 81F0              breq L109
 081E           X52:
 081E 852D              mov R24,R5
 0820 8F5F              subi R24,255    ; addi 1
 0822 3816              cp R3,R24
 0824 61F0              breq L109
 0826           X53:
 0826 852D              mov R24,R5
 0828 8E5F              subi R24,254    ; addi 2
 082A 3816              cp R3,R24
 082C 41F0              breq L109
 082E           X54:
 082E 852D              mov R24,R5
 0830 8D5F              subi R24,253    ; addi 3
 0832 3816              cp R3,R24
 0834 21F0              breq L109
 0836           X55:
 0836 852D              mov R24,R5
 0838 8C5F              subi R24,252    ; addi 4
 083A 3816              cp R3,R24
 083C 11F4              brne L104
 083E           X56:
 083E           L109:
 083E                   .dbline 485
 083E           ;           return 1;
 083E 01E0              ldi R16,1
 0840 28C0              xjmp L103
 0842           L104:
 0842                   .dbline 486
 0842           ;       else if((plane_x + 3 == layout5[0]) || (plane_x + 3 == layout5[0] + 1) || (plane_x + 3 == layout5[0] + 2) ||(plane_x + 3 == layout5[0] + 3) || (plane_x + 4 == layout5[0] + 4))
 0842 00914B00          lds R16,_plane_x
 0846 402F              mov R20,R16
 0848 5527              clr R21
 084A 4D5F              subi R20,253  ; offset = 3
 084C 5F4F              sbci R21,255
 084E 20914900          lds R18,_layout5
 0852 222E              mov R2,R18
 0854 3324              clr R3
 0856 4215              cp R20,R2
 0858 5305              cpc R21,R3
 085A C1F0              breq L115
 085C           X57:
 085C 822D              mov R24,R2
 085E 9927              clr R25
 0860 0196              adiw R24,1
 0862 4817              cp R20,R24
 0864 5907              cpc R21,R25
 0866 91F0              breq L115
 0868           X58:
 0868 822D              mov R24,R2
 086A 9927              clr R25
 086C 0296              adiw R24,2
 086E 4817              cp R20,R24
 0870 5907              cpc R21,R25
 0872 61F0              breq L115
 0874           X59:
 0874 822D              mov R24,R2
 0876 9927              clr R25
 0878 0396              adiw R24,3
 087A 4817              cp R20,R24
 087C 5907              cpc R21,R25
 087E 31F0              breq L115
 0880           X60:
 0880 822D              mov R24,R2
 0882 8C5F              subi R24,252    ; addi 4
 0884 902F              mov R25,R16
 0886 9C5F              subi R25,252    ; addi 4
 0888 9817              cp R25,R24
 088A 11F4              brne L110
 088C           X61:
 088C           L115:
 088C                   .dbline 487
 088C           ;               return 1;
 088C 01E0              ldi R16,1
 088E 01C0              xjmp L103
 0890           L110:
 0890                   .dbline 489
 0890           ;       else
 0890           ;           return 0;
 0890 0027              clr R16
 0892                   .dbline -2
 0892           L103:
 0892                   .dbline 0 ; func end
 0892 5991              ld R21,y+
 0894 4991              ld R20,y+
 0896 0895              ret
 0898                   .dbend
 0898                   .dbfunc e game_over _game_over fV
                        .even
 0898           _game_over::
 0898 2297              sbiw R28,2
 089A                   .dbline -1
 089A                   .dbline 494
 089A           ;       
 089A           ; }
 089A           ; 
 089A           ; void game_over()
 089A           ; {
 089A                   .dbline 495
 089A           ;     LCDFull(0x00);
 089A 0027              clr R16
 089C 0E940000          xcall _LCDFull
 08A0                   .dbline 496
 08A0           ;       LCD_write_english_string(0,2," You are die!");
 08A0 80E0              ldi R24,<L117
 08A2 90E0              ldi R25,>L117
 08A4 9983              std y+1,R25
 08A6 8883              std y+0,R24
 08A8 22E0              ldi R18,2
 08AA 0027              clr R16
 08AC 0E940000          xcall _LCD_write_english_string
 08B0                   .dbline 497
 08B0           ;       LCD_write_english_string(0,3,"   ---  ---");
 08B0 80E0              ldi R24,<L118
 08B2 90E0              ldi R25,>L118
 08B4 9983              std y+1,R25
 08B6 8883              std y+0,R24
 08B8 23E0              ldi R18,3
 08BA 0027              clr R16
 08BC 0E940000          xcall _LCD_write_english_string
 08C0                   .dbline 498
 08C0           ;       LCD_write_english_string(0,4,"    |    |");
 08C0 80E0              ldi R24,<L119
 08C2 90E0              ldi R25,>L119
 08C4 9983              std y+1,R25
 08C6 8883              std y+0,R24
 08C8 24E0              ldi R18,4
 08CA 0027              clr R16
 08CC 0E940000          xcall _LCD_write_english_string
 08D0                   .dbline 499
 08D0           ;       LCD_write_english_string(0,5,"    WuWuWu");
 08D0 80E0              ldi R24,<L120
 08D2 90E0              ldi R25,>L120
 08D4 9983              std y+1,R25
 08D6 8883              std y+0,R24
 08D8 25E0              ldi R18,5
 08DA 0027              clr R16
 08DC 0E940000          xcall _LCD_write_english_string
 08E0                   .dbline 500
 08E0           ;       delay_ms(15000);
 08E0 08E9              ldi R16,15000
 08E2 1AE3              ldi R17,58
 08E4 66DD              xcall _delay_ms
 08E6                   .dbline 501
 08E6           ;       LCDFull(0x00);
 08E6 0027              clr R16
 08E8 0E940000          xcall _LCDFull
 08EC                   .dbline 502
 08EC           ;       main_menu();
 08EC 02D0              xcall _main_menu
 08EE                   .dbline -2
 08EE           L116:
 08EE                   .dbline 0 ; func end
 08EE 2296              adiw R28,2
 08F0 0895              ret
 08F2                   .dbend
 08F2                   .dbfunc e main_menu _main_menu fV
                        .even
 08F2           _main_menu::
 08F2 2297              sbiw R28,2
 08F4                   .dbline -1
 08F4                   .dbline 506
 08F4           ; }
 08F4           ; 
 08F4           ; void main_menu()
 08F4           ; {
 08F4                   .dbline 507
 08F4           ;       LCDFull(0x00);
 08F4 0027              clr R16
 08F6 0E940000          xcall _LCDFull
 08FA                   .dbline 508
 08FA           ;       LCD_DispCHstr(12,0,"一、计时器");
 08FA 80E0              ldi R24,<L122
 08FC 90E0              ldi R25,>L122
 08FE 9983              std y+1,R25
 0900 8883              std y+0,R24
 0902 2227              clr R18
 0904 0CE0              ldi R16,12
 0906 0E940000          xcall _LCD_DispCHstr
 090A                   .dbline 509
 090A           ;       LCD_DispCHstr(12,2,"二、音乐盒");
 090A 80E0              ldi R24,<L123
 090C 90E0              ldi R25,>L123
 090E 9983              std y+1,R25
 0910 8883              std y+0,R24
 0912 22E0              ldi R18,2
 0914 0CE0              ldi R16,12
 0916 0E940000          xcall _LCD_DispCHstr
 091A                   .dbline 510
 091A           ;       LCD_DispCHstr(12,4,"三、游戏");
 091A 80E0              ldi R24,<L124
 091C 90E0              ldi R25,>L124
 091E 9983              std y+1,R25
 0920 8883              std y+0,R24
 0922 24E0              ldi R18,4
 0924 0CE0              ldi R16,12
 0926 0E940000          xcall _LCD_DispCHstr
 092A                   .dbline 511
 092A           ;       LCD_DispCHstr(0,0,"》");
 092A 80E0              ldi R24,<L125
 092C 90E0              ldi R25,>L125
 092E 9983              std y+1,R25
 0930 8883              std y+0,R24
 0932 2227              clr R18
 0934 0027              clr R16
 0936 0E940000          xcall _LCD_DispCHstr
 093A                   .dbline -2
 093A           L121:
 093A                   .dbline 0 ; func end
 093A 2296              adiw R28,2
 093C 0895              ret
 093E                   .dbend
 093E                   .dbfunc e sel1_menu _sel1_menu fV
                        .even
 093E           _sel1_menu::
 093E 2297              sbiw R28,2
 0940                   .dbline -1
 0940                   .dbline 515
 0940           ; }
 0940           ; 
 0940           ; void sel1_menu()
 0940           ; {
 0940                   .dbline 516
 0940           ;       LCDFull(0x00);
 0940 0027              clr R16
 0942 0E940000          xcall _LCDFull
 0946                   .dbline 517
 0946           ;       LCD_DispCHstr(24,2,"计时器");
 0946 80E0              ldi R24,<L127
 0948 90E0              ldi R25,>L127
 094A 9983              std y+1,R25
 094C 8883              std y+0,R24
 094E 22E0              ldi R18,2
 0950 08E1              ldi R16,24
 0952 0E940000          xcall _LCD_DispCHstr
 0956                   .dbline -2
 0956           L126:
 0956                   .dbline 0 ; func end
 0956 2296              adiw R28,2
 0958 0895              ret
 095A                   .dbend
 095A                   .dbfunc e sel1_menu_work _sel1_menu_work fV
 095A           ;     menu1_flag -> R20
                        .even
 095A           _sel1_menu_work::
 095A 0E940000          xcall push_xgsetF00C
 095E                   .dbline -1
 095E                   .dbline 521
 095E           ; }
 095E           ; 
 095E           ; void sel1_menu_work()
 095E           ; {
 095E                   .dbline 522
 095E           ;       unsigned char menu1_flag = 1;
 095E 41E0              ldi R20,1
 0960 C9C0              xjmp L130
 0962           L129:
 0962                   .dbline 524
 0962           ;       while(menu1_flag)
 0962           ;       {
 0962                   .dbline 525
 0962           ;               if(time_1s_ok)
 0962 20903C00          lds R2,_time_1s_ok
 0966 2220              tst R2
 0968 09F4              brne X78
 096A 45C0              xjmp L132
 096C           X78:
 096C           X62:
 096C                   .dbline 526
 096C           ;               {
 096C                   .dbline 527
 096C           ;                       flash_count++;
 096C 80913E00          lds R24,_flash_count
 0970 8F5F              subi R24,255    ; addi 1
 0972 80933E00          sts _flash_count,R24
 0976                   .dbline 528
 0976           ;                       if(flash_count >= 3)
 0976 8330              cpi R24,3
 0978 28F0              brlo L134
 097A           X63:
 097A                   .dbline 529
 097A           ;                       {
 097A                   .dbline 530
 097A           ;                               isflash = noflash;
 097A 2224              clr R2
 097C 20923D00          sts _isflash,R2
 0980                   .dbline 531
 0980           ;                               flash_count = 0;
 0980 20923E00          sts _flash_count,R2
 0984                   .dbline 532
 0984           ;                       }
 0984           L134:
 0984                   .dbline 533
 0984           ;                       time_1s_ok = 0;
 0984 2224              clr R2
 0986 20923C00          sts _time_1s_ok,R2
 098A                   .dbline 534
 098A           ;                       if(isflash == noflash)
 098A 20903D00          lds R2,_isflash
 098E 2220              tst R2
 0990 91F5              brne L136
 0992           X64:
 0992                   .dbline 535
 0992           ;                       {
 0992                   .dbline 536
 0992           ;                               if(++disp_buff_sec_number >= 60)
 0992 80913000          lds R24,_disp_buff_sec_number
 0996 8F5F              subi R24,255    ; addi 1
 0998 282E              mov R2,R24
 099A 20923000          sts _disp_buff_sec_number,R2
 099E 8C33              cpi R24,60
 09A0 70F0              brlo L138
 09A2           X65:
 09A2                   .dbline 537
 09A2           ;                               {
 09A2                   .dbline 538
 09A2           ;                                       disp_buff_sec_number = 0;
 09A2 2224              clr R2
 09A4 20923000          sts _disp_buff_sec_number,R2
 09A8                   .dbline 539
 09A8           ;                                       if(++disp_buff_min_number >= 60)
 09A8 80912F00          lds R24,_disp_buff_min_number
 09AC 8F5F              subi R24,255    ; addi 1
 09AE 282E              mov R2,R24
 09B0 20922F00          sts _disp_buff_min_number,R2
 09B4 8C33              cpi R24,60
 09B6 18F0              brlo L140
 09B8           X66:
 09B8                   .dbline 540
 09B8           ;                                       {
 09B8                   .dbline 541
 09B8           ;                                               disp_buff_min_number = 0;
 09B8 2224              clr R2
 09BA 20922F00          sts _disp_buff_min_number,R2
 09BE                   .dbline 542
 09BE           ;                                       }
 09BE           L140:
 09BE                   .dbline 543
 09BE           ;                               }
 09BE           L138:
 09BE                   .dbline 544
 09BE           ;                               disp_buff[0] = disp_buff_min_number/10;
 09BE 1AE0              ldi R17,10
 09C0 00912F00          lds R16,_disp_buff_min_number
 09C4 0E940000          xcall div8u
 09C8 00933100          sts _disp_buff,R16
 09CC                   .dbline 545
 09CC           ;                               disp_buff[1] = disp_buff_min_number%10;
 09CC 1AE0              ldi R17,10
 09CE 00912F00          lds R16,_disp_buff_min_number
 09D2 0E940000          xcall mod8u
 09D6 00933200          sts _disp_buff+1,R16
 09DA                   .dbline 546
 09DA           ;                               disp_buff[2] = disp_buff_sec_number/10;
 09DA 1AE0              ldi R17,10
 09DC 00913000          lds R16,_disp_buff_sec_number
 09E0 0E940000          xcall div8u
 09E4 00933300          sts _disp_buff+2,R16
 09E8                   .dbline 547
 09E8           ;                               disp_buff[3] = disp_buff_sec_number%10;
 09E8 1AE0              ldi R17,10
 09EA 00913000          lds R16,_disp_buff_sec_number
 09EE 0E940000          xcall mod8u
 09F2 00933400          sts _disp_buff+3,R16
 09F6                   .dbline 548
 09F6           ;                       }
 09F6           L136:
 09F6                   .dbline 549
 09F6           ;               }
 09F6           L132:
 09F6                   .dbline 552
 09F6           ;               
 09F6           ;               
 09F6           ;               if(time_10ms_ok)
 09F6 20903700          lds R2,_time_10ms_ok
 09FA 2220              tst R2
 09FC 09F4              brne X79
 09FE 7AC0              xjmp L145
 0A00           X79:
 0A00           X67:
 0A00                   .dbline 553
 0A00           ;               {
 0A00                   .dbline 554
 0A00           ;                       time_10ms_ok = 0;
 0A00 2224              clr R2
 0A02 20923700          sts _time_10ms_ok,R2
 0A06                   .dbline 555
 0A06           ;                       switch(read_key())
 0A06 E4DC              xcall _read_key
 0A08 A02E              mov R10,R16
 0A0A 6A2D              mov R22,R10
 0A0C 7727              clr R23
 0A0E 6130              cpi R22,1
 0A10 E0E0              ldi R30,0
 0A12 7E07              cpc R23,R30
 0A14 51F0              breq L150
 0A16           X68:
 0A16 6230              cpi R22,2
 0A18 E0E0              ldi R30,0
 0A1A 7E07              cpc R23,R30
 0A1C E9F0              breq L155
 0A1E           X69:
 0A1E 6330              cpi R22,3
 0A20 E0E0              ldi R30,0
 0A22 7E07              cpc R23,R30
 0A24 09F4              brne X80
 0A26 54C0              xjmp L167
 0A28           X80:
 0A28           X70:
 0A28 65C0              xjmp L147
 0A2A           L150:
 0A2A                   .dbline 558
 0A2A           ;                       {
 0A2A           ;                               case SW8:
 0A2A           ;                                       flash_count = 0;
 0A2A 2224              clr R2
 0A2C 20923E00          sts _flash_count,R2
 0A30                   .dbline 559
 0A30           ;                                       if(isflash == noflash)
 0A30 20903D00          lds R2,_isflash
 0A34 2220              tst R2
 0A36 21F4              brne L151
 0A38           X71:
 0A38                   .dbline 560
 0A38           ;                                               isflash = secflash;
 0A38 81E0              ldi R24,1
 0A3A 80933D00          sts _isflash,R24
 0A3E 5AC0              xjmp L148
 0A40           L151:
 0A40                   .dbline 561
 0A40           ;                                       else if(isflash == secflash)
 0A40 80913D00          lds R24,_isflash
 0A44 8130              cpi R24,1
 0A46 21F4              brne L153
 0A48           X72:
 0A48                   .dbline 562
 0A48           ;                                               isflash = minflash;
 0A48 82E0              ldi R24,2
 0A4A 80933D00          sts _isflash,R24
 0A4E 52C0              xjmp L148
 0A50           L153:
 0A50                   .dbline 564
 0A50           ;                                       else 
 0A50           ;                                               isflash = secflash;
 0A50 81E0              ldi R24,1
 0A52 80933D00          sts _isflash,R24
 0A56                   .dbline 565
 0A56           ;                                       break;
 0A56 4EC0              xjmp L148
 0A58           L155:
 0A58                   .dbline 567
 0A58           ;                               case key1_short:
 0A58           ;                                       flash_count = 0;
 0A58 2224              clr R2
 0A5A 20923E00          sts _flash_count,R2
 0A5E                   .dbline 568
 0A5E           ;                                       if(isflash == secflash)
 0A5E 80913D00          lds R24,_isflash
 0A62 8130              cpi R24,1
 0A64 51F4              brne L156
 0A66           X73:
 0A66                   .dbline 569
 0A66           ;                                       {
 0A66                   .dbline 570
 0A66           ;                                               if(++disp_buff_sec_number >= 60)
 0A66 60913000          lds R22,_disp_buff_sec_number
 0A6A 6F5F              subi R22,255    ; addi 1
 0A6C 60933000          sts _disp_buff_sec_number,R22
 0A70 6C33              cpi R22,60
 0A72 88F0              brlo L157
 0A74           X74:
 0A74                   .dbline 571
 0A74           ;                                                       disp_buff_sec_number = 0;
 0A74 20923000          sts _disp_buff_sec_number,R2
 0A78                   .dbline 572
 0A78           ;                                       }
 0A78 0EC0              xjmp L157
 0A7A           L156:
 0A7A                   .dbline 573
 0A7A           ;                                       else if(isflash == minflash)
 0A7A 80913D00          lds R24,_isflash
 0A7E 8230              cpi R24,2
 0A80 51F4              brne L160
 0A82           X75:
 0A82                   .dbline 574
 0A82           ;                                       {
 0A82                   .dbline 575
 0A82           ;                                               if(++disp_buff_min_number >= 60)
 0A82 60912F00          lds R22,_disp_buff_min_number
 0A86 6F5F              subi R22,255    ; addi 1
 0A88 60932F00          sts _disp_buff_min_number,R22
 0A8C 6C33              cpi R22,60
 0A8E 18F0              brlo L162
 0A90           X76:
 0A90                   .dbline 576
 0A90           ;                                                       disp_buff_min_number = 0;
 0A90 2224              clr R2
 0A92 20922F00          sts _disp_buff_min_number,R2
 0A96           L162:
 0A96                   .dbline 577
 0A96           ;                                       }
 0A96           L160:
 0A96           L157:
 0A96                   .dbline 578
 0A96           ;                                       disp_buff[0] = disp_buff_min_number/10;
 0A96 1AE0              ldi R17,10
 0A98 00912F00          lds R16,_disp_buff_min_number
 0A9C 0E940000          xcall div8u
 0AA0 00933100          sts _disp_buff,R16
 0AA4                   .dbline 579
 0AA4           ;                                       disp_buff[1] = disp_buff_min_number%10;
 0AA4 1AE0              ldi R17,10
 0AA6 00912F00          lds R16,_disp_buff_min_number
 0AAA 0E940000          xcall mod8u
 0AAE 00933200          sts _disp_buff+1,R16
 0AB2                   .dbline 580
 0AB2           ;                                       disp_buff[2] = disp_buff_sec_number/10;
 0AB2 1AE0              ldi R17,10
 0AB4 00913000          lds R16,_disp_buff_sec_number
 0AB8 0E940000          xcall div8u
 0ABC 00933300          sts _disp_buff+2,R16
 0AC0                   .dbline 581
 0AC0           ;                                       disp_buff[3] = disp_buff_sec_number%10;
 0AC0 1AE0              ldi R17,10
 0AC2 00913000          lds R16,_disp_buff_sec_number
 0AC6 0E940000          xcall mod8u
 0ACA 00933400          sts _disp_buff+3,R16
 0ACE                   .dbline 582
 0ACE           ;                                       break;
 0ACE 12C0              xjmp L148
 0AD0           L167:
 0AD0                   .dbline 584
 0AD0           ;                               case key1_long:
 0AD0           ;                                       menu1_flag = 0;
 0AD0 4427              clr R20
 0AD2                   .dbline 585
 0AD2           ;                                       disp_buff_min_number = 0;
 0AD2 2224              clr R2
 0AD4 20922F00          sts _disp_buff_min_number,R2
 0AD8                   .dbline 586
 0AD8           ;                                       disp_buff_sec_number = 0;
 0AD8 20923000          sts _disp_buff_sec_number,R2
 0ADC                   .dbline 587
 0ADC           ;                                       disp_buff[0] = 0;
 0ADC 20923100          sts _disp_buff,R2
 0AE0                   .dbline 588
 0AE0           ;                                       disp_buff[1] = 0;
 0AE0 20923200          sts _disp_buff+1,R2
 0AE4                   .dbline 589
 0AE4           ;                                       disp_buff[2] = 0;
 0AE4 20923300          sts _disp_buff+2,R2
 0AE8                   .dbline 590
 0AE8           ;                                       disp_buff[3] = 0;
 0AE8 20923400          sts _disp_buff+3,R2
 0AEC                   .dbline 591
 0AEC           ;                                       LCDFull(0x00);
 0AEC 0027              clr R16
 0AEE 0E940000          xcall _LCDFull
 0AF2                   .dbline 592
 0AF2           ;                                       main_menu();
 0AF2 FFDE              xcall _main_menu
 0AF4                   .dbline 593
 0AF4           ;                                       break;
 0AF4           L147:
 0AF4           L148:
 0AF4                   .dbline 595
 0AF4           ;                       }
 0AF4           ;               }
 0AF4           L145:
 0AF4                   .dbline 598
 0AF4           ;               
 0AF4           ;               
 0AF4           ;       }
 0AF4           L130:
 0AF4                   .dbline 523
 0AF4 4423              tst R20
 0AF6 09F0              breq X81
 0AF8 34CF              xjmp L129
 0AFA           X81:
 0AFA           X77:
 0AFA                   .dbline -2
 0AFA           L128:
 0AFA                   .dbline 0 ; func end
 0AFA 0C940000          xjmp pop_xgsetF00C
 0AFE                   .dbsym r menu1_flag 20 c
 0AFE                   .dbend
 0AFE                   .dbfunc e sel2_menu _sel2_menu fV
                        .even
 0AFE           _sel2_menu::
 0AFE 2297              sbiw R28,2
 0B00                   .dbline -1
 0B00                   .dbline 602
 0B00           ; }
 0B00           ; 
 0B00           ; void sel2_menu()
 0B00           ; {
 0B00                   .dbline 603
 0B00           ;       LCDFull(0x00);
 0B00 0027              clr R16
 0B02 0E940000          xcall _LCDFull
 0B06                   .dbline 604
 0B06           ;       LCD_DispCHstr(12,0,"正在播放：");
 0B06 80E0              ldi R24,<L172
 0B08 90E0              ldi R25,>L172
 0B0A 9983              std y+1,R25
 0B0C 8883              std y+0,R24
 0B0E 2227              clr R18
 0B10 0CE0              ldi R16,12
 0B12 0E940000          xcall _LCD_DispCHstr
 0B16                   .dbline 605
 0B16           ;       LCD_DispCHstr(24,2,"星之所在");
 0B16 80E0              ldi R24,<L173
 0B18 90E0              ldi R25,>L173
 0B1A 9983              std y+1,R25
 0B1C 8883              std y+0,R24
 0B1E 22E0              ldi R18,2
 0B20 08E1              ldi R16,24
 0B22 0E940000          xcall _LCD_DispCHstr
 0B26                   .dbline -2
 0B26           L171:
 0B26                   .dbline 0 ; func end
 0B26 2296              adiw R28,2
 0B28 0895              ret
 0B2A                   .dbend
 0B2A                   .dbfunc e sel2_menu_work _sel2_menu_work fV
 0B2A           ;     menu2_flag -> R20
                        .even
 0B2A           _sel2_menu_work::
 0B2A 0E940000          xcall push_xgsetF000
 0B2E 2297              sbiw R28,2
 0B30                   .dbline -1
 0B30                   .dbline 609
 0B30           ; }
 0B30           ; 
 0B30           ; void sel2_menu_work()
 0B30           ; {
 0B30                   .dbline 610
 0B30           ;       unsigned char menu2_flag = 1;
 0B30 41E0              ldi R20,1
 0B32 72C0              xjmp L176
 0B34           L175:
 0B34                   .dbline 612
 0B34           ;       while(menu2_flag)
 0B34           ;       {
 0B34                   .dbline 613
 0B34           ;               if(time_10ms_ok)
 0B34 20903700          lds R2,_time_10ms_ok
 0B38 2220              tst R2
 0B3A 09F4              brne X89
 0B3C 6DC0              xjmp L178
 0B3E           X89:
 0B3E           X82:
 0B3E                   .dbline 614
 0B3E           ;               {
 0B3E                   .dbline 615
 0B3E           ;                       time_10ms_ok = 0;
 0B3E 2224              clr R2
 0B40 20923700          sts _time_10ms_ok,R2
 0B44                   .dbline 616
 0B44           ;                       switch(read_key())
 0B44 45DC              xcall _read_key
 0B46 602F              mov R22,R16
 0B48 7727              clr R23
 0B4A 6130              cpi R22,1
 0B4C E0E0              ldi R30,0
 0B4E 7E07              cpc R23,R30
 0B50 51F0              breq L183
 0B52           X83:
 0B52 6230              cpi R22,2
 0B54 E0E0              ldi R30,0
 0B56 7E07              cpc R23,R30
 0B58 81F0              breq L186
 0B5A           X84:
 0B5A 6330              cpi R22,3
 0B5C E0E0              ldi R30,0
 0B5E 7E07              cpc R23,R30
 0B60 09F4              brne X90
 0B62 46C0              xjmp L190
 0B64           X90:
 0B64           X85:
 0B64 59C0              xjmp L180
 0B66           L183:
 0B66                   .dbline 619
 0B66           ;                       {
 0B66           ;                               case SW8:
 0B66           ;                               if(TCCR1B == 0x08)
 0B66 8EB5              in R24,0x2e
 0B68 8830              cpi R24,8
 0B6A 19F4              brne L184
 0B6C           X86:
 0B6C                   .dbline 620
 0B6C           ;                                       TCCR1B = 0x0A;
 0B6C 8AE0              ldi R24,10
 0B6E 8EBD              out 0x2e,R24
 0B70 53C0              xjmp L181
 0B72           L184:
 0B72                   .dbline 622
 0B72           ;                               else
 0B72           ;                               {
 0B72                   .dbline 623
 0B72           ;                                       TCCR1B = 0x08;
 0B72 88E0              ldi R24,8
 0B74 8EBD              out 0x2e,R24
 0B76                   .dbline 624
 0B76           ;                                       PORTA |= (1 << 3);
 0B76 DB9A              sbi 0x1b,3
 0B78                   .dbline 625
 0B78           ;                               }
 0B78                   .dbline 626
 0B78           ;                               break;
 0B78 4FC0              xjmp L181
 0B7A           L186:
 0B7A                   .dbline 629
 0B7A           ;                               
 0B7A           ;                               case key1_short:
 0B7A           ;                               if(music_sel == 1)
 0B7A 80912000          lds R24,_music_sel
 0B7E 8130              cpi R24,1
 0B80 B9F4              brne L187
 0B82           X87:
 0B82                   .dbline 630
 0B82           ;                               {
 0B82                   .dbline 631
 0B82           ;                                       music_sel = 2;
 0B82 82E0              ldi R24,2
 0B84 80932000          sts _music_sel,R24
 0B88                   .dbline 632
 0B88           ;                                       LCDFull(0x00);
 0B88 0027              clr R16
 0B8A 0E940000          xcall _LCDFull
 0B8E                   .dbline 633
 0B8E           ;                                       LCD_DispCHstr(12,0,"正在播放：");
 0B8E 80E0              ldi R24,<L172
 0B90 90E0              ldi R25,>L172
 0B92 9983              std y+1,R25
 0B94 8883              std y+0,R24
 0B96 2227              clr R18
 0B98 0CE0              ldi R16,12
 0B9A 0E940000          xcall _LCD_DispCHstr
 0B9E                   .dbline 634
 0B9E           ;                                       LCD_DispCHstr(24,2,"星之所在");
 0B9E 80E0              ldi R24,<L173
 0BA0 90E0              ldi R25,>L173
 0BA2 9983              std y+1,R25
 0BA4 8883              std y+0,R24
 0BA6 22E0              ldi R18,2
 0BA8 08E1              ldi R16,24
 0BAA 0E940000          xcall _LCD_DispCHstr
 0BAE                   .dbline 635
 0BAE           ;                               }
 0BAE 16C0              xjmp L188
 0BB0           L187:
 0BB0                   .dbline 637
 0BB0           ;                               else
 0BB0           ;                               {
 0BB0                   .dbline 638
 0BB0           ;                                       music_sel = 1;
 0BB0 81E0              ldi R24,1
 0BB2 80932000          sts _music_sel,R24
 0BB6                   .dbline 639
 0BB6           ;                                       LCDFull(0x00);
 0BB6 0027              clr R16
 0BB8 0E940000          xcall _LCDFull
 0BBC                   .dbline 640
 0BBC           ;                                       LCD_DispCHstr(12,0,"正在播放：");
 0BBC 80E0              ldi R24,<L172
 0BBE 90E0              ldi R25,>L172
 0BC0 9983              std y+1,R25
 0BC2 8883              std y+0,R24
 0BC4 2227              clr R18
 0BC6 0CE0              ldi R16,12
 0BC8 0E940000          xcall _LCD_DispCHstr
 0BCC                   .dbline 641
 0BCC           ;                                       LCD_DispCHstr(12,2,"梦中的婚礼");
 0BCC 80E0              ldi R24,<L189
 0BCE 90E0              ldi R25,>L189
 0BD0 9983              std y+1,R25
 0BD2 8883              std y+0,R24
 0BD4 22E0              ldi R18,2
 0BD6 0CE0              ldi R16,12
 0BD8 0E940000          xcall _LCD_DispCHstr
 0BDC                   .dbline 642
 0BDC           ;                               }
 0BDC           L188:
 0BDC                   .dbline 643
 0BDC           ;                               note_n = 0;
 0BDC 2224              clr R2
 0BDE 20921B00          sts _note_n,R2
 0BE2                   .dbline 644
 0BE2           ;                               int_n = 1;
 0BE2 81E0              ldi R24,1
 0BE4 90E0              ldi R25,0
 0BE6 90931D00          sts _int_n+1,R25
 0BEA 80931C00          sts _int_n,R24
 0BEE                   .dbline 645
 0BEE           ;                               break;
 0BEE 14C0              xjmp L181
 0BF0           L190:
 0BF0                   .dbline 648
 0BF0           ;                               
 0BF0           ;                               case key1_long:
 0BF0           ;                               menu2_flag = 0;
 0BF0 4427              clr R20
 0BF2                   .dbline 649
 0BF2           ;                               TCCR1B = 0x08;
 0BF2 88E0              ldi R24,8
 0BF4 8EBD              out 0x2e,R24
 0BF6                   .dbline 650
 0BF6           ;                               PORTA |= (1 << 3);
 0BF6 DB9A              sbi 0x1b,3
 0BF8                   .dbline 651
 0BF8           ;                               music_sel = 2;
 0BF8 82E0              ldi R24,2
 0BFA 80932000          sts _music_sel,R24
 0BFE                   .dbline 652
 0BFE           ;                               note_n = 0;
 0BFE 2224              clr R2
 0C00 20921B00          sts _note_n,R2
 0C04                   .dbline 653
 0C04           ;                               int_n = 1;
 0C04 81E0              ldi R24,1
 0C06 90E0              ldi R25,0
 0C08 90931D00          sts _int_n+1,R25
 0C0C 80931C00          sts _int_n,R24
 0C10                   .dbline 654
 0C10           ;                               LCDFull(0x00);
 0C10 0027              clr R16
 0C12 0E940000          xcall _LCDFull
 0C16                   .dbline 655
 0C16           ;                               main_menu();
 0C16 6DDE              xcall _main_menu
 0C18                   .dbline 656
 0C18           ;                               break;
 0C18           L180:
 0C18           L181:
 0C18                   .dbline 658
 0C18           ;                       }
 0C18           ;               }
 0C18           L178:
 0C18                   .dbline 659
 0C18           ;       }
 0C18           L176:
 0C18                   .dbline 611
 0C18 4423              tst R20
 0C1A 09F0              breq X91
 0C1C 8BCF              xjmp L175
 0C1E           X91:
 0C1E           X88:
 0C1E                   .dbline -2
 0C1E           L174:
 0C1E                   .dbline 0 ; func end
 0C1E 2296              adiw R28,2
 0C20 0C940000          xjmp pop_xgsetF000
 0C24                   .dbsym r menu2_flag 20 c
 0C24                   .dbend
 0C24                   .dbfunc e is_has_bullet _is_has_bullet fc
                        .even
 0C24           _is_has_bullet::
 0C24                   .dbline -1
 0C24                   .dbline 663
 0C24           ; }
 0C24           ; 
 0C24           ; unsigned char is_has_bullet()
 0C24           ; {
 0C24                   .dbline 664
 0C24           ;       if((plane_bullet_y == 0) || (plane_bullet_x == 0))
 0C24 20904E00          lds R2,_plane_bullet_y
 0C28 2220              tst R2
 0C2A 21F0              breq L194
 0C2C           X92:
 0C2C 20904D00          lds R2,_plane_bullet_x
 0C30 2220              tst R2
 0C32 11F4              brne L192
 0C34           X93:
 0C34           L194:
 0C34                   .dbline 665
 0C34           ;               return 0;
 0C34 0027              clr R16
 0C36 01C0              xjmp L191
 0C38           L192:
 0C38                   .dbline 667
 0C38           ;       else
 0C38           ;               return 1;
 0C38 01E0              ldi R16,1
 0C3A                   .dbline -2
 0C3A           L191:
 0C3A                   .dbline 0 ; func end
 0C3A 0895              ret
 0C3C                   .dbend
 0C3C                   .dbfunc e plane_bullet_move _plane_bullet_move fV
                        .even
 0C3C           _plane_bullet_move::
 0C3C                   .dbline -1
 0C3C                   .dbline 671
 0C3C           ; }
 0C3C           ; 
 0C3C           ; void plane_bullet_move()
 0C3C           ; {
 0C3C                   .dbline 672
 0C3C           ;       if((plane_bullet_x == 0) || (plane_bullet_y == 0))
 0C3C 20904D00          lds R2,_plane_bullet_x
 0C40 2220              tst R2
 0C42 21F0              breq L198
 0C44           X94:
 0C44 20904E00          lds R2,_plane_bullet_y
 0C48 2220              tst R2
 0C4A A1F4              brne L196
 0C4C           X95:
 0C4C           L198:
 0C4C                   .dbline 673
 0C4C           ;       {
 0C4C                   .dbline 674
 0C4C           ;               LCD_set_XY(plane_bullet_x,plane_bullet_y);
 0C4C 20914E00          lds R18,_plane_bullet_y
 0C50 3327              clr R19
 0C52 00914D00          lds R16,_plane_bullet_x
 0C56 1127              clr R17
 0C58 0E940000          xcall _LCD_set_XY
 0C5C                   .dbline 675
 0C5C           ;               LCD_write_byte(0x00,1);
 0C5C 21E0              ldi R18,1
 0C5E 30E0              ldi R19,0
 0C60 0027              clr R16
 0C62 1127              clr R17
 0C64 0E940000          xcall _LCD_write_byte
 0C68                   .dbline 676
 0C68           ;               plane_bullet_x = 0;
 0C68 2224              clr R2
 0C6A 20924D00          sts _plane_bullet_x,R2
 0C6E                   .dbline 677
 0C6E           ;               plane_bullet_y = 0;
 0C6E 20924E00          sts _plane_bullet_y,R2
 0C72                   .dbline 678
 0C72           ;               return;
 0C72 25C0              xjmp L195
 0C74           L196:
 0C74                   .dbline 680
 0C74           ;       }
 0C74           ;       LCD_set_XY(plane_bullet_x,plane_bullet_y);
 0C74 20914E00          lds R18,_plane_bullet_y
 0C78 3327              clr R19
 0C7A 00914D00          lds R16,_plane_bullet_x
 0C7E 1127              clr R17
 0C80 0E940000          xcall _LCD_set_XY
 0C84                   .dbline 681
 0C84           ;       LCD_write_byte(0x00,1);
 0C84 21E0              ldi R18,1
 0C86 30E0              ldi R19,0
 0C88 0027              clr R16
 0C8A 1127              clr R17
 0C8C 0E940000          xcall _LCD_write_byte
 0C90                   .dbline 682
 0C90           ;       if(plane_bullet_y > 0)
 0C90 80E0              ldi R24,0
 0C92 20904E00          lds R2,_plane_bullet_y
 0C96 8215              cp R24,R2
 0C98 20F4              brsh L199
 0C9A           X96:
 0C9A                   .dbline 683
 0C9A           ;               plane_bullet_y = plane_bullet_y - 1;
 0C9A 822D              mov R24,R2
 0C9C 8150              subi R24,1
 0C9E 80934E00          sts _plane_bullet_y,R24
 0CA2           L199:
 0CA2                   .dbline 684
 0CA2           ;       LCD_set_XY(plane_bullet_x,plane_bullet_y);
 0CA2 20914E00          lds R18,_plane_bullet_y
 0CA6 3327              clr R19
 0CA8 00914D00          lds R16,_plane_bullet_x
 0CAC 1127              clr R17
 0CAE 0E940000          xcall _LCD_set_XY
 0CB2                   .dbline 685
 0CB2           ;       LCD_write_byte(0x08,1);
 0CB2 21E0              ldi R18,1
 0CB4 30E0              ldi R19,0
 0CB6 08E0              ldi R16,8
 0CB8 10E0              ldi R17,0
 0CBA 0E940000          xcall _LCD_write_byte
 0CBE                   .dbline -2
 0CBE           L195:
 0CBE                   .dbline 0 ; func end
 0CBE 0895              ret
 0CC0                   .dbend
 0CC0                   .dbfunc e plane_bullet_want_die _plane_bullet_want_die fV
                        .even
 0CC0           _plane_bullet_want_die::
 0CC0 0E940000          xcall push_xgset300C
 0CC4                   .dbline -1
 0CC4                   .dbline 689
 0CC4           ; }
 0CC4           ; 
 0CC4           ; void plane_bullet_want_die()
 0CC4           ; {
 0CC4                   .dbline 690
 0CC4           ;       if(plane_bullet_y == 0)
 0CC4 20904E00          lds R2,_plane_bullet_y
 0CC8 2220              tst R2
 0CCA 09F0              breq X152
 0CCC A7C0              xjmp L202
 0CCE           X152:
 0CCE           X97:
 0CCE                   .dbline 691
 0CCE           ;       {
 0CCE                   .dbline 692
 0CCE           ;               if(plane_bullet_x == layout0[0] || (plane_bullet_x == layout0[0] + 1) || (plane_bullet_x == layout0[0] + 2) || (plane_bullet_x == layout0[0] + 3) || (plane_bullet_x == layout0[0] + 4))
 0CCE 30904D00          lds R3,_plane_bullet_x
 0CD2 50903F00          lds R5,_layout0
 0CD6 3514              cp R3,R5
 0CD8 81F0              breq L209
 0CDA           X98:
 0CDA 852D              mov R24,R5
 0CDC 8F5F              subi R24,255    ; addi 1
 0CDE 3816              cp R3,R24
 0CE0 61F0              breq L209
 0CE2           X99:
 0CE2 852D              mov R24,R5
 0CE4 8E5F              subi R24,254    ; addi 2
 0CE6 3816              cp R3,R24
 0CE8 41F0              breq L209
 0CEA           X100:
 0CEA 852D              mov R24,R5
 0CEC 8D5F              subi R24,253    ; addi 3
 0CEE 3816              cp R3,R24
 0CF0 21F0              breq L209
 0CF2           X101:
 0CF2 852D              mov R24,R5
 0CF4 8C5F              subi R24,252    ; addi 4
 0CF6 3816              cp R3,R24
 0CF8 71F5              brne L204
 0CFA           X102:
 0CFA           L209:
 0CFA                   .dbline 693
 0CFA           ;               {
 0CFA                   .dbline 694
 0CFA           ;                       LCD_set_XY(plane_bullet_x,layout0[0]);
 0CFA 20913F00          lds R18,_layout0
 0CFE 3327              clr R19
 0D00 00914D00          lds R16,_plane_bullet_x
 0D04 1127              clr R17
 0D06 0E940000          xcall _LCD_set_XY
 0D0A                   .dbline 695
 0D0A           ;                       LCD_write_byte(0x00,1);
 0D0A 21E0              ldi R18,1
 0D0C 30E0              ldi R19,0
 0D0E 0027              clr R16
 0D10 1127              clr R17
 0D12 0E940000          xcall _LCD_write_byte
 0D16                   .dbline 696
 0D16           ;                       LCD_write_byte(0x00,1);
 0D16 21E0              ldi R18,1
 0D18 30E0              ldi R19,0
 0D1A 0027              clr R16
 0D1C 1127              clr R17
 0D1E 0E940000          xcall _LCD_write_byte
 0D22                   .dbline 697
 0D22           ;                       LCD_write_byte(0x00,1);
 0D22 21E0              ldi R18,1
 0D24 30E0              ldi R19,0
 0D26 0027              clr R16
 0D28 1127              clr R17
 0D2A 0E940000          xcall _LCD_write_byte
 0D2E                   .dbline 698
 0D2E           ;                       LCD_write_byte(0x00,1);
 0D2E 21E0              ldi R18,1
 0D30 30E0              ldi R19,0
 0D32 0027              clr R16
 0D34 1127              clr R17
 0D36 0E940000          xcall _LCD_write_byte
 0D3A                   .dbline 699
 0D3A           ;                       LCD_write_byte(0x00,1);
 0D3A 21E0              ldi R18,1
 0D3C 30E0              ldi R19,0
 0D3E 0027              clr R16
 0D40 1127              clr R17
 0D42 0E940000          xcall _LCD_write_byte
 0D46                   .dbline 700
 0D46           ;                       plane_bullet_x = 0;
 0D46 2224              clr R2
 0D48 20924D00          sts _plane_bullet_x,R2
 0D4C                   .dbline 701
 0D4C           ;                       plane_bullet_y = 0;
 0D4C 20924E00          sts _plane_bullet_y,R2
 0D50                   .dbline 702
 0D50           ;                       layout0[0] = 0;
 0D50 20923F00          sts _layout0,R2
 0D54                   .dbline 703
 0D54           ;               }
 0D54 11C3              xjmp L203
 0D56           L204:
 0D56                   .dbline 704
 0D56           ;               else if(plane_bullet_x + 1 == layout0[0] || (plane_bullet_x + 1 == layout0[0] + 1) || (plane_bullet_x + 1 == layout0[0] + 2) || (plane_bullet_x + 1 == layout0[0] + 3) || (plane_bullet_x + 1 == layout0[0] + 4))
 0D56 40914D00          lds R20,_plane_bullet_x
 0D5A 5527              clr R21
 0D5C 4F5F              subi R20,255  ; offset = 1
 0D5E 5F4F              sbci R21,255
 0D60 A0903F00          lds R10,_layout0
 0D64 2A2C              mov R2,R10
 0D66 3324              clr R3
 0D68 4215              cp R20,R2
 0D6A 5305              cpc R21,R3
 0D6C C9F0              breq L215
 0D6E           X103:
 0D6E 822D              mov R24,R2
 0D70 9927              clr R25
 0D72 0196              adiw R24,1
 0D74 4817              cp R20,R24
 0D76 5907              cpc R21,R25
 0D78 99F0              breq L215
 0D7A           X104:
 0D7A 822D              mov R24,R2
 0D7C 9927              clr R25
 0D7E 0296              adiw R24,2
 0D80 4817              cp R20,R24
 0D82 5907              cpc R21,R25
 0D84 69F0              breq L215
 0D86           X105:
 0D86 822D              mov R24,R2
 0D88 9927              clr R25
 0D8A 0396              adiw R24,3
 0D8C 4817              cp R20,R24
 0D8E 5907              cpc R21,R25
 0D90 39F0              breq L215
 0D92           X106:
 0D92 822D              mov R24,R2
 0D94 9927              clr R25
 0D96 0496              adiw R24,4
 0D98 4817              cp R20,R24
 0D9A 5907              cpc R21,R25
 0D9C 09F0              breq X153
 0D9E ECC2              xjmp L203
 0DA0           X153:
 0DA0           X107:
 0DA0           L215:
 0DA0                   .dbline 705
 0DA0           ;               {
 0DA0                   .dbline 706
 0DA0           ;                       LCD_set_XY(plane_bullet_x,plane_bullet_y);
 0DA0 20914E00          lds R18,_plane_bullet_y
 0DA4 3327              clr R19
 0DA6 00914D00          lds R16,_plane_bullet_x
 0DAA 1127              clr R17
 0DAC 0E940000          xcall _LCD_set_XY
 0DB0                   .dbline 707
 0DB0           ;                       LCD_write_byte(0x00,1);
 0DB0 21E0              ldi R18,1
 0DB2 30E0              ldi R19,0
 0DB4 0027              clr R16
 0DB6 1127              clr R17
 0DB8 0E940000          xcall _LCD_write_byte
 0DBC                   .dbline 708
 0DBC           ;                       LCD_set_XY(plane_bullet_x + 1,layout0[0]);
 0DBC 20913F00          lds R18,_layout0
 0DC0 3327              clr R19
 0DC2 00914D00          lds R16,_plane_bullet_x
 0DC6 1127              clr R17
 0DC8 0F5F              subi R16,255  ; offset = 1
 0DCA 1F4F              sbci R17,255
 0DCC 0E940000          xcall _LCD_set_XY
 0DD0                   .dbline 709
 0DD0           ;                       LCD_write_byte(0x00,1);
 0DD0 21E0              ldi R18,1
 0DD2 30E0              ldi R19,0
 0DD4 0027              clr R16
 0DD6 1127              clr R17
 0DD8 0E940000          xcall _LCD_write_byte
 0DDC                   .dbline 710
 0DDC           ;                       LCD_write_byte(0x00,1);
 0DDC 21E0              ldi R18,1
 0DDE 30E0              ldi R19,0
 0DE0 0027              clr R16
 0DE2 1127              clr R17
 0DE4 0E940000          xcall _LCD_write_byte
 0DE8                   .dbline 711
 0DE8           ;                       LCD_write_byte(0x00,1);
 0DE8 21E0              ldi R18,1
 0DEA 30E0              ldi R19,0
 0DEC 0027              clr R16
 0DEE 1127              clr R17
 0DF0 0E940000          xcall _LCD_write_byte
 0DF4                   .dbline 712
 0DF4           ;                       LCD_write_byte(0x00,1);
 0DF4 21E0              ldi R18,1
 0DF6 30E0              ldi R19,0
 0DF8 0027              clr R16
 0DFA 1127              clr R17
 0DFC 0E940000          xcall _LCD_write_byte
 0E00                   .dbline 713
 0E00           ;                       LCD_write_byte(0x00,1);
 0E00 21E0              ldi R18,1
 0E02 30E0              ldi R19,0
 0E04 0027              clr R16
 0E06 1127              clr R17
 0E08 0E940000          xcall _LCD_write_byte
 0E0C                   .dbline 714
 0E0C           ;                       plane_bullet_x = 0;
 0E0C 2224              clr R2
 0E0E 20924D00          sts _plane_bullet_x,R2
 0E12                   .dbline 715
 0E12           ;                       plane_bullet_y = 0;
 0E12 20924E00          sts _plane_bullet_y,R2
 0E16                   .dbline 716
 0E16           ;                       layout0[0] = 0;
 0E16 20923F00          sts _layout0,R2
 0E1A                   .dbline 717
 0E1A           ;               }
 0E1A                   .dbline 718
 0E1A           ;       }
 0E1A AEC2              xjmp L203
 0E1C           L202:
 0E1C                   .dbline 720
 0E1C           ;       
 0E1C           ;       else if(plane_bullet_y == 1)
 0E1C 80914E00          lds R24,_plane_bullet_y
 0E20 8130              cpi R24,1
 0E22 09F0              breq X154
 0E24 A7C0              xjmp L216
 0E26           X154:
 0E26           X108:
 0E26                   .dbline 721
 0E26           ;       {
 0E26                   .dbline 722
 0E26           ;               if(plane_bullet_x == layout1[0] || (plane_bullet_x == layout1[0] + 1) || (plane_bullet_x == layout1[0] + 2) || (plane_bullet_x == layout1[0] + 3) || (plane_bullet_x == layout1[0] + 4))
 0E26 A0904D00          lds R10,_plane_bullet_x
 0E2A 40914100          lds R20,_layout1
 0E2E A416              cp R10,R20
 0E30 81F0              breq L223
 0E32           X109:
 0E32 842F              mov R24,R20
 0E34 8F5F              subi R24,255    ; addi 1
 0E36 A816              cp R10,R24
 0E38 61F0              breq L223
 0E3A           X110:
 0E3A 842F              mov R24,R20
 0E3C 8E5F              subi R24,254    ; addi 2
 0E3E A816              cp R10,R24
 0E40 41F0              breq L223
 0E42           X111:
 0E42 842F              mov R24,R20
 0E44 8D5F              subi R24,253    ; addi 3
 0E46 A816              cp R10,R24
 0E48 21F0              breq L223
 0E4A           X112:
 0E4A 842F              mov R24,R20
 0E4C 8C5F              subi R24,252    ; addi 4
 0E4E A816              cp R10,R24
 0E50 71F5              brne L218
 0E52           X113:
 0E52           L223:
 0E52                   .dbline 723
 0E52           ;               {
 0E52                   .dbline 724
 0E52           ;                       LCD_set_XY(plane_bullet_x,layout1[0]);
 0E52 20914100          lds R18,_layout1
 0E56 3327              clr R19
 0E58 00914D00          lds R16,_plane_bullet_x
 0E5C 1127              clr R17
 0E5E 0E940000          xcall _LCD_set_XY
 0E62                   .dbline 725
 0E62           ;                       LCD_write_byte(0x00,1);
 0E62 21E0              ldi R18,1
 0E64 30E0              ldi R19,0
 0E66 0027              clr R16
 0E68 1127              clr R17
 0E6A 0E940000          xcall _LCD_write_byte
 0E6E                   .dbline 726
 0E6E           ;                       LCD_write_byte(0x00,1);
 0E6E 21E0              ldi R18,1
 0E70 30E0              ldi R19,0
 0E72 0027              clr R16
 0E74 1127              clr R17
 0E76 0E940000          xcall _LCD_write_byte
 0E7A                   .dbline 727
 0E7A           ;                       LCD_write_byte(0x00,1);
 0E7A 21E0              ldi R18,1
 0E7C 30E0              ldi R19,0
 0E7E 0027              clr R16
 0E80 1127              clr R17
 0E82 0E940000          xcall _LCD_write_byte
 0E86                   .dbline 728
 0E86           ;                       LCD_write_byte(0x00,1);
 0E86 21E0              ldi R18,1
 0E88 30E0              ldi R19,0
 0E8A 0027              clr R16
 0E8C 1127              clr R17
 0E8E 0E940000          xcall _LCD_write_byte
 0E92                   .dbline 729
 0E92           ;                       LCD_write_byte(0x00,1);
 0E92 21E0              ldi R18,1
 0E94 30E0              ldi R19,0
 0E96 0027              clr R16
 0E98 1127              clr R17
 0E9A 0E940000          xcall _LCD_write_byte
 0E9E                   .dbline 730
 0E9E           ;                       plane_bullet_x = 0;
 0E9E 2224              clr R2
 0EA0 20924D00          sts _plane_bullet_x,R2
 0EA4                   .dbline 731
 0EA4           ;                       plane_bullet_y = 0;
 0EA4 20924E00          sts _plane_bullet_y,R2
 0EA8                   .dbline 732
 0EA8           ;                       layout1[0] = 0;
 0EA8 20924100          sts _layout1,R2
 0EAC                   .dbline 733
 0EAC           ;               }
 0EAC 65C2              xjmp L217
 0EAE           L218:
 0EAE                   .dbline 734
 0EAE           ;               else if(plane_bullet_x + 1 == layout1[0] || (plane_bullet_x + 1 == layout1[0] + 1) || (plane_bullet_x + 1 == layout1[0] + 2) || (plane_bullet_x + 1 == layout1[0] + 3) || (plane_bullet_x + 1 == layout1[0] + 4))
 0EAE 40914D00          lds R20,_plane_bullet_x
 0EB2 5527              clr R21
 0EB4 4F5F              subi R20,255  ; offset = 1
 0EB6 5F4F              sbci R21,255
 0EB8 A0904100          lds R10,_layout1
 0EBC 2A2C              mov R2,R10
 0EBE 3324              clr R3
 0EC0 4215              cp R20,R2
 0EC2 5305              cpc R21,R3
 0EC4 C9F0              breq L229
 0EC6           X114:
 0EC6 822D              mov R24,R2
 0EC8 9927              clr R25
 0ECA 0196              adiw R24,1
 0ECC 4817              cp R20,R24
 0ECE 5907              cpc R21,R25
 0ED0 99F0              breq L229
 0ED2           X115:
 0ED2 822D              mov R24,R2
 0ED4 9927              clr R25
 0ED6 0296              adiw R24,2
 0ED8 4817              cp R20,R24
 0EDA 5907              cpc R21,R25
 0EDC 69F0              breq L229
 0EDE           X116:
 0EDE 822D              mov R24,R2
 0EE0 9927              clr R25
 0EE2 0396              adiw R24,3
 0EE4 4817              cp R20,R24
 0EE6 5907              cpc R21,R25
 0EE8 39F0              breq L229
 0EEA           X117:
 0EEA 822D              mov R24,R2
 0EEC 9927              clr R25
 0EEE 0496              adiw R24,4
 0EF0 4817              cp R20,R24
 0EF2 5907              cpc R21,R25
 0EF4 09F0              breq X155
 0EF6 40C2              xjmp L217
 0EF8           X155:
 0EF8           X118:
 0EF8           L229:
 0EF8                   .dbline 735
 0EF8           ;               {
 0EF8                   .dbline 736
 0EF8           ;                       LCD_set_XY(plane_bullet_x,plane_bullet_y);
 0EF8 20914E00          lds R18,_plane_bullet_y
 0EFC 3327              clr R19
 0EFE 00914D00          lds R16,_plane_bullet_x
 0F02 1127              clr R17
 0F04 0E940000          xcall _LCD_set_XY
 0F08                   .dbline 737
 0F08           ;                       LCD_write_byte(0x00,1);
 0F08 21E0              ldi R18,1
 0F0A 30E0              ldi R19,0
 0F0C 0027              clr R16
 0F0E 1127              clr R17
 0F10 0E940000          xcall _LCD_write_byte
 0F14                   .dbline 738
 0F14           ;                       LCD_set_XY(plane_bullet_x + 1,layout1[0]);
 0F14 20914100          lds R18,_layout1
 0F18 3327              clr R19
 0F1A 00914D00          lds R16,_plane_bullet_x
 0F1E 1127              clr R17
 0F20 0F5F              subi R16,255  ; offset = 1
 0F22 1F4F              sbci R17,255
 0F24 0E940000          xcall _LCD_set_XY
 0F28                   .dbline 739
 0F28           ;                       LCD_write_byte(0x00,1);
 0F28 21E0              ldi R18,1
 0F2A 30E0              ldi R19,0
 0F2C 0027              clr R16
 0F2E 1127              clr R17
 0F30 0E940000          xcall _LCD_write_byte
 0F34                   .dbline 740
 0F34           ;                       LCD_write_byte(0x00,1);
 0F34 21E0              ldi R18,1
 0F36 30E0              ldi R19,0
 0F38 0027              clr R16
 0F3A 1127              clr R17
 0F3C 0E940000          xcall _LCD_write_byte
 0F40                   .dbline 741
 0F40           ;                       LCD_write_byte(0x00,1);
 0F40 21E0              ldi R18,1
 0F42 30E0              ldi R19,0
 0F44 0027              clr R16
 0F46 1127              clr R17
 0F48 0E940000          xcall _LCD_write_byte
 0F4C                   .dbline 742
 0F4C           ;                       LCD_write_byte(0x00,1);
 0F4C 21E0              ldi R18,1
 0F4E 30E0              ldi R19,0
 0F50 0027              clr R16
 0F52 1127              clr R17
 0F54 0E940000          xcall _LCD_write_byte
 0F58                   .dbline 743
 0F58           ;                       LCD_write_byte(0x00,1);
 0F58 21E0              ldi R18,1
 0F5A 30E0              ldi R19,0
 0F5C 0027              clr R16
 0F5E 1127              clr R17
 0F60 0E940000          xcall _LCD_write_byte
 0F64                   .dbline 744
 0F64           ;                       plane_bullet_x = 0;
 0F64 2224              clr R2
 0F66 20924D00          sts _plane_bullet_x,R2
 0F6A                   .dbline 745
 0F6A           ;                       plane_bullet_y = 0;
 0F6A 20924E00          sts _plane_bullet_y,R2
 0F6E                   .dbline 746
 0F6E           ;                       layout1[0] = 0;
 0F6E 20924100          sts _layout1,R2
 0F72                   .dbline 747
 0F72           ;               }
 0F72                   .dbline 748
 0F72           ;       }
 0F72 02C2              xjmp L217
 0F74           L216:
 0F74                   .dbline 750
 0F74           ;       
 0F74           ;       else if(plane_bullet_y == 2)
 0F74 80914E00          lds R24,_plane_bullet_y
 0F78 8230              cpi R24,2
 0F7A 09F0              breq X156
 0F7C A7C0              xjmp L230
 0F7E           X156:
 0F7E           X119:
 0F7E                   .dbline 751
 0F7E           ;       {
 0F7E                   .dbline 752
 0F7E           ;               if(plane_bullet_x == layout2[0] || (plane_bullet_x == layout2[0] + 1) || (plane_bullet_x == layout2[0] + 2) || (plane_bullet_x == layout2[0] + 3) || (plane_bullet_x == layout2[0] + 4))
 0F7E A0904D00          lds R10,_plane_bullet_x
 0F82 40914300          lds R20,_layout2
 0F86 A416              cp R10,R20
 0F88 81F0              breq L237
 0F8A           X120:
 0F8A 842F              mov R24,R20
 0F8C 8F5F              subi R24,255    ; addi 1
 0F8E A816              cp R10,R24
 0F90 61F0              breq L237
 0F92           X121:
 0F92 842F              mov R24,R20
 0F94 8E5F              subi R24,254    ; addi 2
 0F96 A816              cp R10,R24
 0F98 41F0              breq L237
 0F9A           X122:
 0F9A 842F              mov R24,R20
 0F9C 8D5F              subi R24,253    ; addi 3
 0F9E A816              cp R10,R24
 0FA0 21F0              breq L237
 0FA2           X123:
 0FA2 842F              mov R24,R20
 0FA4 8C5F              subi R24,252    ; addi 4
 0FA6 A816              cp R10,R24
 0FA8 71F5              brne L232
 0FAA           X124:
 0FAA           L237:
 0FAA                   .dbline 753
 0FAA           ;               {
 0FAA                   .dbline 754
 0FAA           ;                       LCD_set_XY(plane_bullet_x,layout2[0]);
 0FAA 20914300          lds R18,_layout2
 0FAE 3327              clr R19
 0FB0 00914D00          lds R16,_plane_bullet_x
 0FB4 1127              clr R17
 0FB6 0E940000          xcall _LCD_set_XY
 0FBA                   .dbline 755
 0FBA           ;                       LCD_write_byte(0x00,1);
 0FBA 21E0              ldi R18,1
 0FBC 30E0              ldi R19,0
 0FBE 0027              clr R16
 0FC0 1127              clr R17
 0FC2 0E940000          xcall _LCD_write_byte
 0FC6                   .dbline 756
 0FC6           ;                       LCD_write_byte(0x00,1);
 0FC6 21E0              ldi R18,1
 0FC8 30E0              ldi R19,0
 0FCA 0027              clr R16
 0FCC 1127              clr R17
 0FCE 0E940000          xcall _LCD_write_byte
 0FD2                   .dbline 757
 0FD2           ;                       LCD_write_byte(0x00,1);
 0FD2 21E0              ldi R18,1
 0FD4 30E0              ldi R19,0
 0FD6 0027              clr R16
 0FD8 1127              clr R17
 0FDA 0E940000          xcall _LCD_write_byte
 0FDE                   .dbline 758
 0FDE           ;                       LCD_write_byte(0x00,1);
 0FDE 21E0              ldi R18,1
 0FE0 30E0              ldi R19,0
 0FE2 0027              clr R16
 0FE4 1127              clr R17
 0FE6 0E940000          xcall _LCD_write_byte
 0FEA                   .dbline 759
 0FEA           ;                       LCD_write_byte(0x00,1);
 0FEA 21E0              ldi R18,1
 0FEC 30E0              ldi R19,0
 0FEE 0027              clr R16
 0FF0 1127              clr R17
 0FF2 0E940000          xcall _LCD_write_byte
 0FF6                   .dbline 760
 0FF6           ;                       plane_bullet_x = 0;
 0FF6 2224              clr R2
 0FF8 20924D00          sts _plane_bullet_x,R2
 0FFC                   .dbline 761
 0FFC           ;                       plane_bullet_y = 0;
 0FFC 20924E00          sts _plane_bullet_y,R2
 1000                   .dbline 762
 1000           ;                       layout2[0] = 0;
 1000 20924300          sts _layout2,R2
 1004                   .dbline 763
 1004           ;               }
 1004 B9C1              xjmp L231
 1006           L232:
 1006                   .dbline 764
 1006           ;               else if(plane_bullet_x + 1 == layout2[0] || (plane_bullet_x + 1 == layout2[0] + 1) || (plane_bullet_x + 1 == layout2[0] + 2) || (plane_bullet_x + 1 == layout2[0] + 3) || (plane_bullet_x + 1 == layout2[0] + 4))
 1006 40914D00          lds R20,_plane_bullet_x
 100A 5527              clr R21
 100C 4F5F              subi R20,255  ; offset = 1
 100E 5F4F              sbci R21,255
 1010 A0904300          lds R10,_layout2
 1014 2A2C              mov R2,R10
 1016 3324              clr R3
 1018 4215              cp R20,R2
 101A 5305              cpc R21,R3
 101C C9F0              breq L243
 101E           X125:
 101E 822D              mov R24,R2
 1020 9927              clr R25
 1022 0196              adiw R24,1
 1024 4817              cp R20,R24
 1026 5907              cpc R21,R25
 1028 99F0              breq L243
 102A           X126:
 102A 822D              mov R24,R2
 102C 9927              clr R25
 102E 0296              adiw R24,2
 1030 4817              cp R20,R24
 1032 5907              cpc R21,R25
 1034 69F0              breq L243
 1036           X127:
 1036 822D              mov R24,R2
 1038 9927              clr R25
 103A 0396              adiw R24,3
 103C 4817              cp R20,R24
 103E 5907              cpc R21,R25
 1040 39F0              breq L243
 1042           X128:
 1042 822D              mov R24,R2
 1044 9927              clr R25
 1046 0496              adiw R24,4
 1048 4817              cp R20,R24
 104A 5907              cpc R21,R25
 104C 09F0              breq X157
 104E 94C1              xjmp L231
 1050           X157:
 1050           X129:
 1050           L243:
 1050                   .dbline 765
 1050           ;               {
 1050                   .dbline 766
 1050           ;                       LCD_set_XY(plane_bullet_x,plane_bullet_y);
 1050 20914E00          lds R18,_plane_bullet_y
 1054 3327              clr R19
 1056 00914D00          lds R16,_plane_bullet_x
 105A 1127              clr R17
 105C 0E940000          xcall _LCD_set_XY
 1060                   .dbline 767
 1060           ;                       LCD_write_byte(0x00,1);
 1060 21E0              ldi R18,1
 1062 30E0              ldi R19,0
 1064 0027              clr R16
 1066 1127              clr R17
 1068 0E940000          xcall _LCD_write_byte
 106C                   .dbline 768
 106C           ;                       LCD_set_XY(plane_bullet_x + 1,layout2[0]);
 106C 20914300          lds R18,_layout2
 1070 3327              clr R19
 1072 00914D00          lds R16,_plane_bullet_x
 1076 1127              clr R17
 1078 0F5F              subi R16,255  ; offset = 1
 107A 1F4F              sbci R17,255
 107C 0E940000          xcall _LCD_set_XY
 1080                   .dbline 769
 1080           ;                       LCD_write_byte(0x00,1);
 1080 21E0              ldi R18,1
 1082 30E0              ldi R19,0
 1084 0027              clr R16
 1086 1127              clr R17
 1088 0E940000          xcall _LCD_write_byte
 108C                   .dbline 770
 108C           ;                       LCD_write_byte(0x00,1);
 108C 21E0              ldi R18,1
 108E 30E0              ldi R19,0
 1090 0027              clr R16
 1092 1127              clr R17
 1094 0E940000          xcall _LCD_write_byte
 1098                   .dbline 771
 1098           ;                       LCD_write_byte(0x00,1);
 1098 21E0              ldi R18,1
 109A 30E0              ldi R19,0
 109C 0027              clr R16
 109E 1127              clr R17
 10A0 0E940000          xcall _LCD_write_byte
 10A4                   .dbline 772
 10A4           ;                       LCD_write_byte(0x00,1);
 10A4 21E0              ldi R18,1
 10A6 30E0              ldi R19,0
 10A8 0027              clr R16
 10AA 1127              clr R17
 10AC 0E940000          xcall _LCD_write_byte
 10B0                   .dbline 773
 10B0           ;                       LCD_write_byte(0x00,1);
 10B0 21E0              ldi R18,1
 10B2 30E0              ldi R19,0
 10B4 0027              clr R16
 10B6 1127              clr R17
 10B8 0E940000          xcall _LCD_write_byte
 10BC                   .dbline 774
 10BC           ;                       plane_bullet_x = 0;
 10BC 2224              clr R2
 10BE 20924D00          sts _plane_bullet_x,R2
 10C2                   .dbline 775
 10C2           ;                       plane_bullet_y = 0;
 10C2 20924E00          sts _plane_bullet_y,R2
 10C6                   .dbline 776
 10C6           ;                       layout2[0] = 0;
 10C6 20924300          sts _layout2,R2
 10CA                   .dbline 777
 10CA           ;               }
 10CA                   .dbline 778
 10CA           ;       }
 10CA 56C1              xjmp L231
 10CC           L230:
 10CC                   .dbline 780
 10CC           ;       
 10CC           ;       else if(plane_bullet_y == 3)
 10CC 80914E00          lds R24,_plane_bullet_y
 10D0 8330              cpi R24,3
 10D2 09F0              breq X158
 10D4 A7C0              xjmp L244
 10D6           X158:
 10D6           X130:
 10D6                   .dbline 781
 10D6           ;       {
 10D6                   .dbline 782
 10D6           ;               if(plane_bullet_x == layout3[0] || (plane_bullet_x == layout3[0] + 1) || (plane_bullet_x == layout3[0] + 2) || (plane_bullet_x == layout3[0] + 3) || (plane_bullet_x == layout3[0] + 4))
 10D6 A0904D00          lds R10,_plane_bullet_x
 10DA 40914500          lds R20,_layout3
 10DE A416              cp R10,R20
 10E0 81F0              breq L251
 10E2           X131:
 10E2 842F              mov R24,R20
 10E4 8F5F              subi R24,255    ; addi 1
 10E6 A816              cp R10,R24
 10E8 61F0              breq L251
 10EA           X132:
 10EA 842F              mov R24,R20
 10EC 8E5F              subi R24,254    ; addi 2
 10EE A816              cp R10,R24
 10F0 41F0              breq L251
 10F2           X133:
 10F2 842F              mov R24,R20
 10F4 8D5F              subi R24,253    ; addi 3
 10F6 A816              cp R10,R24
 10F8 21F0              breq L251
 10FA           X134:
 10FA 842F              mov R24,R20
 10FC 8C5F              subi R24,252    ; addi 4
 10FE A816              cp R10,R24
 1100 71F5              brne L246
 1102           X135:
 1102           L251:
 1102                   .dbline 783
 1102           ;               {
 1102                   .dbline 784
 1102           ;                       LCD_set_XY(plane_bullet_x,layout3[0]);
 1102 20914500          lds R18,_layout3
 1106 3327              clr R19
 1108 00914D00          lds R16,_plane_bullet_x
 110C 1127              clr R17
 110E 0E940000          xcall _LCD_set_XY
 1112                   .dbline 785
 1112           ;                       LCD_write_byte(0x00,1);
 1112 21E0              ldi R18,1
 1114 30E0              ldi R19,0
 1116 0027              clr R16
 1118 1127              clr R17
 111A 0E940000          xcall _LCD_write_byte
 111E                   .dbline 786
 111E           ;                       LCD_write_byte(0x00,1);
 111E 21E0              ldi R18,1
 1120 30E0              ldi R19,0
 1122 0027              clr R16
 1124 1127              clr R17
 1126 0E940000          xcall _LCD_write_byte
 112A                   .dbline 787
 112A           ;                       LCD_write_byte(0x00,1);
 112A 21E0              ldi R18,1
 112C 30E0              ldi R19,0
 112E 0027              clr R16
 1130 1127              clr R17
 1132 0E940000          xcall _LCD_write_byte
 1136                   .dbline 788
 1136           ;                       LCD_write_byte(0x00,1);
 1136 21E0              ldi R18,1
 1138 30E0              ldi R19,0
 113A 0027              clr R16
 113C 1127              clr R17
 113E 0E940000          xcall _LCD_write_byte
 1142                   .dbline 789
 1142           ;                       LCD_write_byte(0x00,1);
 1142 21E0              ldi R18,1
 1144 30E0              ldi R19,0
 1146 0027              clr R16
 1148 1127              clr R17
 114A 0E940000          xcall _LCD_write_byte
 114E                   .dbline 790
 114E           ;                       plane_bullet_x = 0;
 114E 2224              clr R2
 1150 20924D00          sts _plane_bullet_x,R2
 1154                   .dbline 791
 1154           ;                       plane_bullet_y = 0;
 1154 20924E00          sts _plane_bullet_y,R2
 1158                   .dbline 792
 1158           ;                       layout3[0] = 0;
 1158 20924500          sts _layout3,R2
 115C                   .dbline 793
 115C           ;               }
 115C 0DC1              xjmp L245
 115E           L246:
 115E                   .dbline 794
 115E           ;               else if(plane_bullet_x + 1 == layout3[0] || (plane_bullet_x + 1 == layout3[0] + 1) || (plane_bullet_x + 1 == layout3[0] + 2) || (plane_bullet_x + 1 == layout3[0] + 3) || (plane_bullet_x + 1 == layout3[0] + 4))
 115E 40914D00          lds R20,_plane_bullet_x
 1162 5527              clr R21
 1164 4F5F              subi R20,255  ; offset = 1
 1166 5F4F              sbci R21,255
 1168 A0904500          lds R10,_layout3
 116C 2A2C              mov R2,R10
 116E 3324              clr R3
 1170 4215              cp R20,R2
 1172 5305              cpc R21,R3
 1174 C9F0              breq L257
 1176           X136:
 1176 822D              mov R24,R2
 1178 9927              clr R25
 117A 0196              adiw R24,1
 117C 4817              cp R20,R24
 117E 5907              cpc R21,R25
 1180 99F0              breq L257
 1182           X137:
 1182 822D              mov R24,R2
 1184 9927              clr R25
 1186 0296              adiw R24,2
 1188 4817              cp R20,R24
 118A 5907              cpc R21,R25
 118C 69F0              breq L257
 118E           X138:
 118E 822D              mov R24,R2
 1190 9927              clr R25
 1192 0396              adiw R24,3
 1194 4817              cp R20,R24
 1196 5907              cpc R21,R25
 1198 39F0              breq L257
 119A           X139:
 119A 822D              mov R24,R2
 119C 9927              clr R25
 119E 0496              adiw R24,4
 11A0 4817              cp R20,R24
 11A2 5907              cpc R21,R25
 11A4 09F0              breq X159
 11A6 E8C0              xjmp L245
 11A8           X159:
 11A8           X140:
 11A8           L257:
 11A8                   .dbline 795
 11A8           ;               {
 11A8                   .dbline 796
 11A8           ;                       LCD_set_XY(plane_bullet_x,plane_bullet_y);
 11A8 20914E00          lds R18,_plane_bullet_y
 11AC 3327              clr R19
 11AE 00914D00          lds R16,_plane_bullet_x
 11B2 1127              clr R17
 11B4 0E940000          xcall _LCD_set_XY
 11B8                   .dbline 797
 11B8           ;                       LCD_write_byte(0x00,1);
 11B8 21E0              ldi R18,1
 11BA 30E0              ldi R19,0
 11BC 0027              clr R16
 11BE 1127              clr R17
 11C0 0E940000          xcall _LCD_write_byte
 11C4                   .dbline 798
 11C4           ;                       LCD_set_XY(plane_bullet_x + 1,layout3[0]);
 11C4 20914500          lds R18,_layout3
 11C8 3327              clr R19
 11CA 00914D00          lds R16,_plane_bullet_x
 11CE 1127              clr R17
 11D0 0F5F              subi R16,255  ; offset = 1
 11D2 1F4F              sbci R17,255
 11D4 0E940000          xcall _LCD_set_XY
 11D8                   .dbline 799
 11D8           ;                       LCD_write_byte(0x00,1);
 11D8 21E0              ldi R18,1
 11DA 30E0              ldi R19,0
 11DC 0027              clr R16
 11DE 1127              clr R17
 11E0 0E940000          xcall _LCD_write_byte
 11E4                   .dbline 800
 11E4           ;                       LCD_write_byte(0x00,1);
 11E4 21E0              ldi R18,1
 11E6 30E0              ldi R19,0
 11E8 0027              clr R16
 11EA 1127              clr R17
 11EC 0E940000          xcall _LCD_write_byte
 11F0                   .dbline 801
 11F0           ;                       LCD_write_byte(0x00,1);
 11F0 21E0              ldi R18,1
 11F2 30E0              ldi R19,0
 11F4 0027              clr R16
 11F6 1127              clr R17
 11F8 0E940000          xcall _LCD_write_byte
 11FC                   .dbline 802
 11FC           ;                       LCD_write_byte(0x00,1);
 11FC 21E0              ldi R18,1
 11FE 30E0              ldi R19,0
 1200 0027              clr R16
 1202 1127              clr R17
 1204 0E940000          xcall _LCD_write_byte
 1208                   .dbline 803
 1208           ;                       LCD_write_byte(0x00,1);
 1208 21E0              ldi R18,1
 120A 30E0              ldi R19,0
 120C 0027              clr R16
 120E 1127              clr R17
 1210 0E940000          xcall _LCD_write_byte
 1214                   .dbline 804
 1214           ;                       plane_bullet_x = 0;
 1214 2224              clr R2
 1216 20924D00          sts _plane_bullet_x,R2
 121A                   .dbline 805
 121A           ;                       plane_bullet_y = 0;
 121A 20924E00          sts _plane_bullet_y,R2
 121E                   .dbline 806
 121E           ;                       layout3[0] = 0;
 121E 20924500          sts _layout3,R2
 1222                   .dbline 807
 1222           ;               }
 1222                   .dbline 808
 1222           ;       }
 1222 AAC0              xjmp L245
 1224           L244:
 1224                   .dbline 810
 1224           ;       
 1224           ;       else if(plane_bullet_y == 4)
 1224 80914E00          lds R24,_plane_bullet_y
 1228 8430              cpi R24,4
 122A 09F0              breq X160
 122C A5C0              xjmp L258
 122E           X160:
 122E           X141:
 122E                   .dbline 811
 122E           ;       {
 122E                   .dbline 812
 122E           ;               if(plane_bullet_x == layout4[0] || (plane_bullet_x == layout4[0] + 1) || (plane_bullet_x == layout4[0] + 2) || (plane_bullet_x == layout4[0] + 3) || (plane_bullet_x == layout4[0] + 4))
 122E A0904D00          lds R10,_plane_bullet_x
 1232 40914700          lds R20,_layout4
 1236 A416              cp R10,R20
 1238 81F0              breq L265
 123A           X142:
 123A 842F              mov R24,R20
 123C 8F5F              subi R24,255    ; addi 1
 123E A816              cp R10,R24
 1240 61F0              breq L265
 1242           X143:
 1242 842F              mov R24,R20
 1244 8E5F              subi R24,254    ; addi 2
 1246 A816              cp R10,R24
 1248 41F0              breq L265
 124A           X144:
 124A 842F              mov R24,R20
 124C 8D5F              subi R24,253    ; addi 3
 124E A816              cp R10,R24
 1250 21F0              breq L265
 1252           X145:
 1252 842F              mov R24,R20
 1254 8C5F              subi R24,252    ; addi 4
 1256 A816              cp R10,R24
 1258 71F5              brne L260
 125A           X146:
 125A           L265:
 125A                   .dbline 813
 125A           ;               {
 125A                   .dbline 814
 125A           ;                       LCD_set_XY(plane_bullet_x,layout4[0]);
 125A 20914700          lds R18,_layout4
 125E 3327              clr R19
 1260 00914D00          lds R16,_plane_bullet_x
 1264 1127              clr R17
 1266 0E940000          xcall _LCD_set_XY
 126A                   .dbline 815
 126A           ;                       LCD_write_byte(0x00,1);
 126A 21E0              ldi R18,1
 126C 30E0              ldi R19,0
 126E 0027              clr R16
 1270 1127              clr R17
 1272 0E940000          xcall _LCD_write_byte
 1276                   .dbline 816
 1276           ;                       LCD_write_byte(0x00,1);
 1276 21E0              ldi R18,1
 1278 30E0              ldi R19,0
 127A 0027              clr R16
 127C 1127              clr R17
 127E 0E940000          xcall _LCD_write_byte
 1282                   .dbline 817
 1282           ;                       LCD_write_byte(0x00,1);
 1282 21E0              ldi R18,1
 1284 30E0              ldi R19,0
 1286 0027              clr R16
 1288 1127              clr R17
 128A 0E940000          xcall _LCD_write_byte
 128E                   .dbline 818
 128E           ;                       LCD_write_byte(0x00,1);
 128E 21E0              ldi R18,1
 1290 30E0              ldi R19,0
 1292 0027              clr R16
 1294 1127              clr R17
 1296 0E940000          xcall _LCD_write_byte
 129A                   .dbline 819
 129A           ;                       LCD_write_byte(0x00,1);
 129A 21E0              ldi R18,1
 129C 30E0              ldi R19,0
 129E 0027              clr R16
 12A0 1127              clr R17
 12A2 0E940000          xcall _LCD_write_byte
 12A6                   .dbline 820
 12A6           ;                       plane_bullet_x = 0;
 12A6 2224              clr R2
 12A8 20924D00          sts _plane_bullet_x,R2
 12AC                   .dbline 821
 12AC           ;                       plane_bullet_y = 0;
 12AC 20924E00          sts _plane_bullet_y,R2
 12B0                   .dbline 822
 12B0           ;                       layout4[0] = 0;
 12B0 20924700          sts _layout4,R2
 12B4                   .dbline 823
 12B4           ;               }
 12B4 61C0              xjmp L261
 12B6           L260:
 12B6                   .dbline 824
 12B6           ;               else if(plane_bullet_x + 1 == layout4[0] || (plane_bullet_x + 1 == layout4[0] + 1) || (plane_bullet_x + 1 == layout4[0] + 2) || (plane_bullet_x + 1 == layout4[0] + 3) || (plane_bullet_x + 1 == layout4[0] + 4))
 12B6 40914D00          lds R20,_plane_bullet_x
 12BA 5527              clr R21
 12BC 4F5F              subi R20,255  ; offset = 1
 12BE 5F4F              sbci R21,255
 12C0 A0904700          lds R10,_layout4
 12C4 2A2C              mov R2,R10
 12C6 3324              clr R3
 12C8 4215              cp R20,R2
 12CA 5305              cpc R21,R3
 12CC C1F0              breq L271
 12CE           X147:
 12CE 822D              mov R24,R2
 12D0 9927              clr R25
 12D2 0196              adiw R24,1
 12D4 4817              cp R20,R24
 12D6 5907              cpc R21,R25
 12D8 91F0              breq L271
 12DA           X148:
 12DA 822D              mov R24,R2
 12DC 9927              clr R25
 12DE 0296              adiw R24,2
 12E0 4817              cp R20,R24
 12E2 5907              cpc R21,R25
 12E4 61F0              breq L271
 12E6           X149:
 12E6 822D              mov R24,R2
 12E8 9927              clr R25
 12EA 0396              adiw R24,3
 12EC 4817              cp R20,R24
 12EE 5907              cpc R21,R25
 12F0 31F0              breq L271
 12F2           X150:
 12F2 822D              mov R24,R2
 12F4 9927              clr R25
 12F6 0496              adiw R24,4
 12F8 4817              cp R20,R24
 12FA 5907              cpc R21,R25
 12FC E9F5              brne L266
 12FE           X151:
 12FE           L271:
 12FE                   .dbline 825
 12FE           ;               {
 12FE                   .dbline 826
 12FE           ;                       LCD_set_XY(plane_bullet_x,plane_bullet_y);
 12FE 20914E00          lds R18,_plane_bullet_y
 1302 3327              clr R19
 1304 00914D00          lds R16,_plane_bullet_x
 1308 1127              clr R17
 130A 0E940000          xcall _LCD_set_XY
 130E                   .dbline 827
 130E           ;                       LCD_write_byte(0x00,1);
 130E 21E0              ldi R18,1
 1310 30E0              ldi R19,0
 1312 0027              clr R16
 1314 1127              clr R17
 1316 0E940000          xcall _LCD_write_byte
 131A                   .dbline 828
 131A           ;                       LCD_set_XY(plane_bullet_x + 1,layout4[0]);
 131A 20914700          lds R18,_layout4
 131E 3327              clr R19
 1320 00914D00          lds R16,_plane_bullet_x
 1324 1127              clr R17
 1326 0F5F              subi R16,255  ; offset = 1
 1328 1F4F              sbci R17,255
 132A 0E940000          xcall _LCD_set_XY
 132E                   .dbline 829
 132E           ;                       LCD_write_byte(0x00,1);
 132E 21E0              ldi R18,1
 1330 30E0              ldi R19,0
 1332 0027              clr R16
 1334 1127              clr R17
 1336 0E940000          xcall _LCD_write_byte
 133A                   .dbline 830
 133A           ;                       LCD_write_byte(0x00,1);
 133A 21E0              ldi R18,1
 133C 30E0              ldi R19,0
 133E 0027              clr R16
 1340 1127              clr R17
 1342 0E940000          xcall _LCD_write_byte
 1346                   .dbline 831
 1346           ;                       LCD_write_byte(0x00,1);
 1346 21E0              ldi R18,1
 1348 30E0              ldi R19,0
 134A 0027              clr R16
 134C 1127              clr R17
 134E 0E940000          xcall _LCD_write_byte
 1352                   .dbline 832
 1352           ;                       LCD_write_byte(0x00,1);
 1352 21E0              ldi R18,1
 1354 30E0              ldi R19,0
 1356 0027              clr R16
 1358 1127              clr R17
 135A 0E940000          xcall _LCD_write_byte
 135E                   .dbline 833
 135E           ;                       LCD_write_byte(0x00,1);
 135E 21E0              ldi R18,1
 1360 30E0              ldi R19,0
 1362 0027              clr R16
 1364 1127              clr R17
 1366 0E940000          xcall _LCD_write_byte
 136A                   .dbline 834
 136A           ;                       plane_bullet_x = 0;
 136A 2224              clr R2
 136C 20924D00          sts _plane_bullet_x,R2
 1370                   .dbline 835
 1370           ;                       plane_bullet_y = 0;
 1370 20924E00          sts _plane_bullet_y,R2
 1374                   .dbline 836
 1374           ;                       layout4[0] = 0;
 1374 20924700          sts _layout4,R2
 1378                   .dbline 837
 1378           ;               }
 1378           L266:
 1378           L261:
 1378                   .dbline 838
 1378           ;       }
 1378           L258:
 1378           L245:
 1378           L231:
 1378           L217:
 1378           L203:
 1378                   .dbline -2
 1378           L201:
 1378                   .dbline 0 ; func end
 1378 0C940000          xjmp pop_xgset300C
 137C                   .dbend
 137C                   .dbfunc e sel3_menu _sel3_menu fV
                        .even
 137C           _sel3_menu::
 137C 2297              sbiw R28,2
 137E                   .dbline -1
 137E                   .dbline 843
 137E           ; }
 137E           ; 
 137E           ; 
 137E           ; void sel3_menu()
 137E           ; {
 137E                   .dbline 844
 137E           ;       LCDFull(0x00);
 137E 0027              clr R16
 1380 0E940000          xcall _LCDFull
 1384                   .dbline 845
 1384           ;       LCD_write_english_string(0,0,"  AircraftWar");
 1384 80E0              ldi R24,<L273
 1386 90E0              ldi R25,>L273
 1388 9983              std y+1,R25
 138A 8883              std y+0,R24
 138C 2227              clr R18
 138E 0027              clr R16
 1390 0E940000          xcall _LCD_write_english_string
 1394                   .dbline 846
 1394           ;       LCD_write_english_string(0,2,"     ^ ^");
 1394 80E0              ldi R24,<L274
 1396 90E0              ldi R25,>L274
 1398 9983              std y+1,R25
 139A 8883              std y+0,R24
 139C 22E0              ldi R18,2
 139E 0027              clr R16
 13A0 0E940000          xcall _LCD_write_english_string
 13A4                   .dbline 847
 13A4           ;       LCD_write_english_string(0,3,"      -");
 13A4 80E0              ldi R24,<L275
 13A6 90E0              ldi R25,>L275
 13A8 9983              std y+1,R25
 13AA 8883              std y+0,R24
 13AC 23E0              ldi R18,3
 13AE 0027              clr R16
 13B0 0E940000          xcall _LCD_write_english_string
 13B4                   .dbline 848
 13B4           ;       LCD_write_english_string(0,4," anykeytoplay");
 13B4 80E0              ldi R24,<L276
 13B6 90E0              ldi R25,>L276
 13B8 9983              std y+1,R25
 13BA 8883              std y+0,R24
 13BC 24E0              ldi R18,4
 13BE 0027              clr R16
 13C0 0E940000          xcall _LCD_write_english_string
 13C4                   .dbline 849
 13C4           ;       LCD_write_english_string(0,5,"    By Chen");
 13C4 80E0              ldi R24,<L277
 13C6 90E0              ldi R25,>L277
 13C8 9983              std y+1,R25
 13CA 8883              std y+0,R24
 13CC 25E0              ldi R18,5
 13CE 0027              clr R16
 13D0 0E940000          xcall _LCD_write_english_string
 13D4                   .dbline -2
 13D4           L272:
 13D4                   .dbline 0 ; func end
 13D4 2296              adiw R28,2
 13D6 0895              ret
 13D8                   .dbend
 13D8                   .dbfunc e sel3_menu_work _sel3_menu_work fV
 13D8           ;              j -> <dead>
 13D8           ;      game_init -> R20
 13D8           ;  layout_number -> R22
 13D8           ;      plane_die -> R12
 13D8           ; sel3_menu_work_flag -> R10
 13D8           ;              i -> R14
                        .even
 13D8           _sel3_menu_work::
 13D8 0E940000          xcall push_xgsetF0FC
 13DC                   .dbline -1
 13DC                   .dbline 853
 13DC           ; }
 13DC           ; 
 13DC           ; void sel3_menu_work()
 13DC           ; {
 13DC                   .dbline 854
 13DC           ;       unsigned char sel3_menu_work_flag = 1;
 13DC AA24              clr R10
 13DE A394              inc R10
 13E0                   .dbline 855
 13E0           ;       unsigned char game_init = 0;
 13E0 4427              clr R20
 13E2                   .dbline 856
 13E2           ;       unsigned char layout_number = 0;
 13E2 6627              clr R22
 13E4                   .dbline 858
 13E4           ;       unsigned char i,j;
 13E4           ;       unsigned char plane_die = 0;
 13E4 CC24              clr R12
 13E6 13C1              xjmp L280
 13E8           L279:
 13E8                   .dbline 860
 13E8           ;       while(sel3_menu_work_flag)
 13E8           ;       {
 13E8                   .dbline 861
 13E8           ;               if(time_1s_ok)
 13E8 20903C00          lds R2,_time_1s_ok
 13EC 2220              tst R2
 13EE 09F4              brne X182
 13F0 CFC0              xjmp L282
 13F2           X182:
 13F2           X161:
 13F2                   .dbline 862
 13F2           ;               {
 13F2                   .dbline 863
 13F2           ;                       time_1s_ok = 0;
 13F2 2224              clr R2
 13F4 20923C00          sts _time_1s_ok,R2
 13F8                   .dbline 864
 13F8           ;                       if(plane_is_die())
 13F8 0ADA              xcall _plane_is_die
 13FA 0023              tst R16
 13FC 11F0              breq L284
 13FE           X162:
 13FE                   .dbline 865
 13FE           ;                           plane_die = 1;
 13FE CC24              clr R12
 1400 C394              inc R12
 1402           L284:
 1402                   .dbline 867
 1402           ;                       
 1402           ;                       if(!plane_die)
 1402 CC20              tst R12
 1404 09F0              breq X183
 1406 C2C0              xjmp L286
 1408           X183:
 1408           X163:
 1408                   .dbline 868
 1408           ;                       {
 1408                   .dbline 869
 1408           ;                           if(game_init)
 1408 4423              tst R20
 140A 09F4              brne X184
 140C C1C0              xjmp L287
 140E           X184:
 140E           X164:
 140E                   .dbline 870
 140E           ;                       {
 140E                   .dbline 871
 140E           ;                                   LCDFull(0x00);                                      //清屏
 140E 0027              clr R16
 1410 0E940000          xcall _LCDFull
 1414                   .dbline 872
 1414           ;                                       layout5[0] = layout4[0];                //障碍物下滑
 1414 20904700          lds R2,_layout4
 1418 20924900          sts _layout5,R2
 141C                   .dbline 873
 141C           ;                                   layout4[0] = layout3[0];
 141C 20904500          lds R2,_layout3
 1420 20924700          sts _layout4,R2
 1424                   .dbline 874
 1424           ;                                   layout3[0] = layout2[0];
 1424 20904300          lds R2,_layout2
 1428 20924500          sts _layout3,R2
 142C                   .dbline 875
 142C           ;                                   layout2[0] = layout1[0];
 142C 20904100          lds R2,_layout1
 1430 20924300          sts _layout2,R2
 1434                   .dbline 876
 1434           ;                                   layout1[0] = layout0[0];
 1434 20903F00          lds R2,_layout0
 1438 20924100          sts _layout1,R2
 143C                   .dbline 878
 143C           ;                               
 143C           ;                                   layout0[0] = layout_number;         //伪随机生成障碍物
 143C 60933F00          sts _layout0,R22
 1440                   .dbline 879
 1440           ;                                   layout_number += 22;
 1440 6A5E              subi R22,234    ; addi 22
 1442                   .dbline 880
 1442           ;                                   if(layout_number >= 80)
 1442 6035              cpi R22,80
 1444 28F0              brlo L290
 1446           X165:
 1446                   .dbline 881
 1446           ;                                           layout_number = layout_number % 80;
 1446 10E5              ldi R17,80
 1448 062F              mov R16,R22
 144A 0E940000          xcall mod8u
 144E 602F              mov R22,R16
 1450           L290:
 1450                   .dbline 883
 1450           ;                               
 1450           ;                                   LCD_set_XY(layout0[0],0);           //画障碍物
 1450 2227              clr R18
 1452 3327              clr R19
 1454 00913F00          lds R16,_layout0
 1458 1127              clr R17
 145A 0E940000          xcall _LCD_set_XY
 145E                   .dbline 884
 145E           ;                                   for(i = 0;i < 5;i++)
 145E EE24              clr R14
 1460 08C0              xjmp L295
 1462           L292:
 1462                   .dbline 885
 1462           ;                                       LCD_write_byte(layout0[1],1);
 1462 21E0              ldi R18,1
 1464 30E0              ldi R19,0
 1466 00914000          lds R16,_layout0+1
 146A 1127              clr R17
 146C 0E940000          xcall _LCD_write_byte
 1470           L293:
 1470                   .dbline 884
 1470 E394              inc R14
 1472           L295:
 1472                   .dbline 884
 1472 8E2D              mov R24,R14
 1474 8530              cpi R24,5
 1476 A8F3              brlo L292
 1478           X166:
 1478                   .dbline 886
 1478           ;                                   LCD_set_XY(layout1[0],1);
 1478 21E0              ldi R18,1
 147A 30E0              ldi R19,0
 147C 00914100          lds R16,_layout1
 1480 1127              clr R17
 1482 0E940000          xcall _LCD_set_XY
 1486                   .dbline 887
 1486           ;                                   for(i = 0;i < 5;i++)
 1486 EE24              clr R14
 1488 08C0              xjmp L300
 148A           L297:
 148A                   .dbline 888
 148A           ;                                           LCD_write_byte(layout1[1],1);
 148A 21E0              ldi R18,1
 148C 30E0              ldi R19,0
 148E 00914200          lds R16,_layout1+1
 1492 1127              clr R17
 1494 0E940000          xcall _LCD_write_byte
 1498           L298:
 1498                   .dbline 887
 1498 E394              inc R14
 149A           L300:
 149A                   .dbline 887
 149A 8E2D              mov R24,R14
 149C 8530              cpi R24,5
 149E A8F3              brlo L297
 14A0           X167:
 14A0                   .dbline 889
 14A0           ;                                   LCD_set_XY(layout2[0],2);
 14A0 22E0              ldi R18,2
 14A2 30E0              ldi R19,0
 14A4 00914300          lds R16,_layout2
 14A8 1127              clr R17
 14AA 0E940000          xcall _LCD_set_XY
 14AE                   .dbline 890
 14AE           ;                                   for(i = 0;i < 5;i++)
 14AE EE24              clr R14
 14B0 08C0              xjmp L305
 14B2           L302:
 14B2                   .dbline 891
 14B2           ;                                       LCD_write_byte(layout2[1],1);
 14B2 21E0              ldi R18,1
 14B4 30E0              ldi R19,0
 14B6 00914400          lds R16,_layout2+1
 14BA 1127              clr R17
 14BC 0E940000          xcall _LCD_write_byte
 14C0           L303:
 14C0                   .dbline 890
 14C0 E394              inc R14
 14C2           L305:
 14C2                   .dbline 890
 14C2 8E2D              mov R24,R14
 14C4 8530              cpi R24,5
 14C6 A8F3              brlo L302
 14C8           X168:
 14C8                   .dbline 892
 14C8           ;                                   LCD_set_XY(layout3[0],3);
 14C8 23E0              ldi R18,3
 14CA 30E0              ldi R19,0
 14CC 00914500          lds R16,_layout3
 14D0 1127              clr R17
 14D2 0E940000          xcall _LCD_set_XY
 14D6                   .dbline 893
 14D6           ;                                   for(i = 0;i < 5;i++)
 14D6 EE24              clr R14
 14D8 08C0              xjmp L310
 14DA           L307:
 14DA                   .dbline 894
 14DA           ;                                       LCD_write_byte(layout3[1],1);
 14DA 21E0              ldi R18,1
 14DC 30E0              ldi R19,0
 14DE 00914600          lds R16,_layout3+1
 14E2 1127              clr R17
 14E4 0E940000          xcall _LCD_write_byte
 14E8           L308:
 14E8                   .dbline 893
 14E8 E394              inc R14
 14EA           L310:
 14EA                   .dbline 893
 14EA 8E2D              mov R24,R14
 14EC 8530              cpi R24,5
 14EE A8F3              brlo L307
 14F0           X169:
 14F0                   .dbline 895
 14F0           ;                                   LCD_set_XY(layout4[0],4);
 14F0 24E0              ldi R18,4
 14F2 30E0              ldi R19,0
 14F4 00914700          lds R16,_layout4
 14F8 1127              clr R17
 14FA 0E940000          xcall _LCD_set_XY
 14FE                   .dbline 896
 14FE           ;                                   for(i = 0;i < 5;i++)
 14FE EE24              clr R14
 1500 08C0              xjmp L315
 1502           L312:
 1502                   .dbline 897
 1502           ;                                           LCD_write_byte(layout4[1],1);
 1502 21E0              ldi R18,1
 1504 30E0              ldi R19,0
 1506 00914800          lds R16,_layout4+1
 150A 1127              clr R17
 150C 0E940000          xcall _LCD_write_byte
 1510           L313:
 1510                   .dbline 896
 1510 E394              inc R14
 1512           L315:
 1512                   .dbline 896
 1512 8E2D              mov R24,R14
 1514 8530              cpi R24,5
 1516 A8F3              brlo L312
 1518           X170:
 1518                   .dbline 898
 1518           ;                                   LCD_set_XY(layout5[0],5);
 1518 25E0              ldi R18,5
 151A 30E0              ldi R19,0
 151C 00914900          lds R16,_layout5
 1520 1127              clr R17
 1522 0E940000          xcall _LCD_set_XY
 1526                   .dbline 899
 1526           ;                                   for(i = 0;i < 5;i++)
 1526 EE24              clr R14
 1528 08C0              xjmp L320
 152A           L317:
 152A                   .dbline 900
 152A           ;                                           LCD_write_byte(layout5[1],1);
 152A 21E0              ldi R18,1
 152C 30E0              ldi R19,0
 152E 00914A00          lds R16,_layout5+1
 1532 1127              clr R17
 1534 0E940000          xcall _LCD_write_byte
 1538           L318:
 1538                   .dbline 899
 1538 E394              inc R14
 153A           L320:
 153A                   .dbline 899
 153A 8E2D              mov R24,R14
 153C 8530              cpi R24,5
 153E A8F3              brlo L317
 1540           X171:
 1540                   .dbline 902
 1540           ;                               
 1540           ;                                   LCD_set_XY(plane_x,plane_y);        //画飞机，一个H字母
 1540 20914C00          lds R18,_plane_y
 1544 3327              clr R19
 1546 00914B00          lds R16,_plane_x
 154A 1127              clr R17
 154C 0E940000          xcall _LCD_set_XY
 1550                   .dbline 903
 1550           ;                                   LCD_write_byte(0XF8,1);
 1550 21E0              ldi R18,1
 1552 30E0              ldi R19,0
 1554 08EF              ldi R16,248
 1556 10E0              ldi R17,0
 1558 0E940000          xcall _LCD_write_byte
 155C                   .dbline 904
 155C           ;                                       LCD_write_byte(0X20,1);
 155C 21E0              ldi R18,1
 155E 30E0              ldi R19,0
 1560 00E2              ldi R16,32
 1562 10E0              ldi R17,0
 1564 0E940000          xcall _LCD_write_byte
 1568                   .dbline 905
 1568           ;                                       LCD_write_byte(0X20,1);
 1568 21E0              ldi R18,1
 156A 30E0              ldi R19,0
 156C 00E2              ldi R16,32
 156E 10E0              ldi R17,0
 1570 0E940000          xcall _LCD_write_byte
 1574                   .dbline 906
 1574           ;                                       LCD_write_byte(0XF8,1);
 1574 21E0              ldi R18,1
 1576 30E0              ldi R19,0
 1578 08EF              ldi R16,248
 157A 10E0              ldi R17,0
 157C 0E940000          xcall _LCD_write_byte
 1580                   .dbline 908
 1580           ;                                       
 1580           ;                                       if(is_has_bullet())
 1580 51DB              xcall _is_has_bullet
 1582 0023              tst R16
 1584 29F0              breq L287
 1586           X172:
 1586                   .dbline 909
 1586           ;                                       {
 1586                   .dbline 910
 1586           ;                                               plane_bullet_move();
 1586 5ADB              xcall _plane_bullet_move
 1588                   .dbline 911
 1588           ;                                               plane_bullet_want_die();
 1588 9BDB              xcall _plane_bullet_want_die
 158A                   .dbline 912
 158A           ;                                       }
 158A                   .dbline 913
 158A           ;                           }
 158A                   .dbline 914
 158A           ;                       }
 158A 02C0              xjmp L287
 158C           L286:
 158C                   .dbline 916
 158C           ;                       else
 158C           ;                       {
 158C                   .dbline 917
 158C           ;                           game_over();
 158C 85D9              xcall _game_over
 158E                   .dbline 918
 158E           ;                               sel3_menu_work_flag = 0;
 158E AA24              clr R10
 1590                   .dbline 919
 1590           ;                       }
 1590           L287:
 1590                   .dbline 920
 1590           ;               }
 1590           L282:
 1590                   .dbline 921
 1590           ;               if(time_10ms_ok)
 1590 20903700          lds R2,_time_10ms_ok
 1594 2220              tst R2
 1596 09F4              brne X185
 1598 3AC0              xjmp L324
 159A           X185:
 159A           X173:
 159A                   .dbline 922
 159A           ;               {
 159A                   .dbline 923
 159A           ;                       time_10ms_ok = 0;
 159A 2224              clr R2
 159C 20923700          sts _time_10ms_ok,R2
 15A0                   .dbline 924
 15A0           ;                       switch(read_key())
 15A0 0E94E801          xcall _read_key
 15A4 E02E              mov R14,R16
 15A6 FF24              clr R15
 15A8 C701              movw R24,R14
 15AA 8130              cpi R24,1
 15AC E0E0              ldi R30,0
 15AE 9E07              cpc R25,R30
 15B0 49F0              breq L329
 15B2           X174:
 15B2 8230              cpi R24,2
 15B4 E0E0              ldi R30,0
 15B6 9E07              cpc R25,R30
 15B8 71F0              breq L332
 15BA           X175:
 15BA 8330              cpi R24,3
 15BC E0E0              ldi R30,0
 15BE 9E07              cpc R25,R30
 15C0 99F0              breq L335
 15C2           X176:
 15C2 25C0              xjmp L326
 15C4           L329:
 15C4                   .dbline 927
 15C4           ;                       {
 15C4           ;                               case SW8:
 15C4           ;                                       if(game_init == 0)
 15C4 4423              tst R20
 15C6 29F4              brne L330
 15C8           X177:
 15C8                   .dbline 928
 15C8           ;                                       {
 15C8                   .dbline 929
 15C8           ;                                               LCDFull(0x00);
 15C8 0027              clr R16
 15CA 0E940000          xcall _LCDFull
 15CE                   .dbline 930
 15CE           ;                                               game_init = 1;
 15CE 41E0              ldi R20,1
 15D0                   .dbline 931
 15D0           ;                                       }
 15D0 1EC0              xjmp L327
 15D2           L330:
 15D2                   .dbline 933
 15D2           ;                                       else
 15D2           ;                                               plane_left_move();
 15D2 8DD8              xcall _plane_left_move
 15D4                   .dbline 934
 15D4           ;                                       break;
 15D4 1CC0              xjmp L327
 15D6           L332:
 15D6                   .dbline 936
 15D6           ;                               case key1_short:
 15D6           ;                                       if(game_init == 0)
 15D6 4423              tst R20
 15D8 29F4              brne L333
 15DA           X178:
 15DA                   .dbline 937
 15DA           ;                                       {
 15DA                   .dbline 938
 15DA           ;                                               LCDFull(0x00);
 15DA 0027              clr R16
 15DC 0E940000          xcall _LCDFull
 15E0                   .dbline 939
 15E0           ;                                               game_init = 1;
 15E0 41E0              ldi R20,1
 15E2                   .dbline 940
 15E2           ;                                       }
 15E2 15C0              xjmp L327
 15E4           L333:
 15E4                   .dbline 942
 15E4           ;                                       else
 15E4           ;                                               plane_right_move();
 15E4 CDD8              xcall _plane_right_move
 15E6                   .dbline 943
 15E6           ;                                       break;
 15E6 13C0              xjmp L327
 15E8           L335:
 15E8                   .dbline 945
 15E8           ;                               case key1_long:
 15E8           ;                                       if(game_init == 0)
 15E8 4423              tst R20
 15EA 29F4              brne L336
 15EC           X179:
 15EC                   .dbline 946
 15EC           ;                                       {
 15EC                   .dbline 947
 15EC           ;                                           LCDFull(0x00);
 15EC 0027              clr R16
 15EE 0E940000          xcall _LCDFull
 15F2                   .dbline 948
 15F2           ;                                               game_init = 1;
 15F2 41E0              ldi R20,1
 15F4                   .dbline 949
 15F4           ;                                       } 
 15F4 0CC0              xjmp L327
 15F6           L336:
 15F6                   .dbline 951
 15F6           ;                                       else
 15F6           ;                                       {
 15F6                   .dbline 952
 15F6           ;                                               if(!is_has_bullet())
 15F6 16DB              xcall _is_has_bullet
 15F8 E02E              mov R14,R16
 15FA 0023              tst R16
 15FC 41F4              brne L327
 15FE           X180:
 15FE                   .dbline 953
 15FE           ;                                               {
 15FE                   .dbline 954
 15FE           ;                                                       plane_bullet_x = plane_x + 1;
 15FE 80914B00          lds R24,_plane_x
 1602 8F5F              subi R24,255    ; addi 1
 1604 80934D00          sts _plane_bullet_x,R24
 1608                   .dbline 955
 1608           ;                                                       plane_bullet_y = 5;
 1608 85E0              ldi R24,5
 160A 80934E00          sts _plane_bullet_y,R24
 160E                   .dbline 956
 160E           ;                                               }
 160E                   .dbline 957
 160E           ;                                       }
 160E                   .dbline 958
 160E           ;                                       break;
 160E           L326:
 160E           L327:
 160E                   .dbline 960
 160E           ;                       }
 160E           ;               }
 160E           L324:
 160E                   .dbline 961
 160E           ;       }
 160E           L280:
 160E                   .dbline 859
 160E AA20              tst R10
 1610 09F0              breq X186
 1612 EACE              xjmp L279
 1614           X186:
 1614           X181:
 1614                   .dbline -2
 1614           L278:
 1614                   .dbline 0 ; func end
 1614 0C940000          xjmp pop_xgsetF0FC
 1618                   .dbsym l j 1 c
 1618                   .dbsym r game_init 20 c
 1618                   .dbsym r layout_number 22 c
 1618                   .dbsym r plane_die 12 c
 1618                   .dbsym r sel3_menu_work_flag 10 c
 1618                   .dbsym r i 14 c
 1618                   .dbend
 1618                   .dbfunc e main _main fV
 1618           ;       menu_sel -> R20
 1618           ;              i -> R22
                        .even
 1618           _main::
 1618 2297              sbiw R28,2
 161A                   .dbline -1
 161A                   .dbline 968
 161A           ; }
 161A           ; 
 161A           ; 
 161A           ; 
 161A           ; 
 161A           ; void main(void)
 161A           ; {
 161A                   .dbline 969
 161A           ;       unsigned char menu_sel = 0;
 161A 4427              clr R20
 161C                   .dbline 972
 161C           ;       unsigned char i;
 161C           ;       
 161C           ;       init_devices();
 161C 54D8              xcall _init_devices
 161E                   .dbline 973
 161E           ;       LCDInit();
 161E 0E940000          xcall _LCDInit
 1622                   .dbline 974
 1622           ;       UARTSend(0x55);
 1622 05E5              ldi R16,85
 1624 60D8              xcall _UARTSend
 1626                   .dbline 975
 1626           ;       LCDFull(0x00);
 1626 0027              clr R16
 1628 0E940000          xcall _LCDFull
 162C                   .dbline 976
 162C           ;       main_menu();            //主界面
 162C 62D9              xcall _main_menu
 162E 5EC0              xjmp L342
 1630           L341:
 1630                   .dbline 979
 1630           ;       
 1630           ;       while(1)
 1630           ;       {
 1630                   .dbline 980
 1630           ;               if(time_10ms_ok)
 1630 20903700          lds R2,_time_10ms_ok
 1634 2220              tst R2
 1636 09F4              brne X196
 1638 59C0              xjmp L344
 163A           X196:
 163A           X187:
 163A                   .dbline 981
 163A           ;               {
 163A                   .dbline 982
 163A           ;                       time_10ms_ok = 0;
 163A 2224              clr R2
 163C 20923700          sts _time_10ms_ok,R2
 1640                   .dbline 983
 1640           ;                       switch(read_key())
 1640 0E94E801          xcall _read_key
 1644 602F              mov R22,R16
 1646 7727              clr R23
 1648 6130              cpi R22,1
 164A E0E0              ldi R30,0
 164C 7E07              cpc R23,R30
 164E 29F0              breq L349
 1650           X188:
 1650 6230              cpi R22,2
 1652 E0E0              ldi R30,0
 1654 7E07              cpc R23,R30
 1656 C1F1              breq L360
 1658           X189:
 1658 49C0              xjmp L346
 165A           L349:
 165A                   .dbline 986
 165A           ;                       {
 165A           ;                               case SW8:       //选择功能
 165A           ;                                       LCD_set_XY(0,menu_sel * 2);             //清除选择项
 165A 242F              mov R18,R20
 165C 3327              clr R19
 165E 220F              lsl R18
 1660 331F              rol R19
 1662 0027              clr R16
 1664 1127              clr R17
 1666 0E940000          xcall _LCD_set_XY
 166A                   .dbline 987
 166A           ;                                       for(i = 0;i < 12;i++)
 166A 6627              clr R22
 166C 07C0              xjmp L353
 166E           L350:
 166E                   .dbline 988
 166E           ;                                               LCD_write_byte(0x00,1);
 166E 21E0              ldi R18,1
 1670 30E0              ldi R19,0
 1672 0027              clr R16
 1674 1127              clr R17
 1676 0E940000          xcall _LCD_write_byte
 167A           L351:
 167A                   .dbline 987
 167A 6395              inc R22
 167C           L353:
 167C                   .dbline 987
 167C 6C30              cpi R22,12
 167E B8F3              brlo L350
 1680           X190:
 1680                   .dbline 989
 1680           ;                                       LCD_set_XY(0,menu_sel * 2 + 1);
 1680 242F              mov R18,R20
 1682 3327              clr R19
 1684 220F              lsl R18
 1686 331F              rol R19
 1688 2F5F              subi R18,255  ; offset = 1
 168A 3F4F              sbci R19,255
 168C 0027              clr R16
 168E 1127              clr R17
 1690 0E940000          xcall _LCD_set_XY
 1694                   .dbline 990
 1694           ;                                       for(i = 0;i < 12;i++)
 1694 6627              clr R22
 1696 07C0              xjmp L357
 1698           L354:
 1698                   .dbline 991
 1698           ;                                               LCD_write_byte(0x00,1);
 1698 21E0              ldi R18,1
 169A 30E0              ldi R19,0
 169C 0027              clr R16
 169E 1127              clr R17
 16A0 0E940000          xcall _LCD_write_byte
 16A4           L355:
 16A4                   .dbline 990
 16A4 6395              inc R22
 16A6           L357:
 16A6                   .dbline 990
 16A6 6C30              cpi R22,12
 16A8 B8F3              brlo L354
 16AA           X191:
 16AA                   .dbline 993
 16AA           ;                                       
 16AA           ;                                       if(menu_sel == 2)
 16AA 4230              cpi R20,2
 16AC 11F4              brne L358
 16AE           X192:
 16AE                   .dbline 994
 16AE           ;                                               menu_sel = 0;
 16AE 4427              clr R20
 16B0 01C0              xjmp L359
 16B2           L358:
 16B2                   .dbline 996
 16B2           ;                                       else
 16B2           ;                                               menu_sel++;
 16B2 4395              inc R20
 16B4           L359:
 16B4                   .dbline 998
 16B4           ;                                       
 16B4           ;                                       LCD_DispCHstr(0,menu_sel * 2,"》");             //重新画选择项
 16B4 80E0              ldi R24,<L125
 16B6 90E0              ldi R25,>L125
 16B8 9983              std y+1,R25
 16BA 8883              std y+0,R24
 16BC 242F              mov R18,R20
 16BE 220F              lsl R18
 16C0 0027              clr R16
 16C2 0E940000          xcall _LCD_DispCHstr
 16C6                   .dbline 999
 16C6           ;                               break;
 16C6 12C0              xjmp L347
 16C8           L360:
 16C8                   .dbline 1002
 16C8           ;                               
 16C8           ;                               case key1_short:
 16C8           ;                                       LCDFull(0x00);
 16C8 0027              clr R16
 16CA 0E940000          xcall _LCDFull
 16CE                   .dbline 1003
 16CE           ;                                       if(menu_sel == 0)
 16CE 4423              tst R20
 16D0 21F4              brne L361
 16D2           X193:
 16D2                   .dbline 1004
 16D2           ;                                       {
 16D2                   .dbline 1005
 16D2           ;                                               menu_sel = 0;
 16D2 4427              clr R20
 16D4                   .dbline 1006
 16D4           ;                                               sel1_menu();
 16D4 34D9              xcall _sel1_menu
 16D6                   .dbline 1007
 16D6           ;                                               sel1_menu_work();
 16D6 41D9              xcall _sel1_menu_work
 16D8                   .dbline 1008
 16D8           ;                                       }
 16D8 09C0              xjmp L347
 16DA           L361:
 16DA                   .dbline 1009
 16DA           ;                                       else if(menu_sel == 1)
 16DA 4130              cpi R20,1
 16DC 21F4              brne L363
 16DE           X194:
 16DE                   .dbline 1010
 16DE           ;                                       {
 16DE                   .dbline 1011
 16DE           ;                                               menu_sel = 0;
 16DE 4427              clr R20
 16E0                   .dbline 1012
 16E0           ;                                               sel2_menu();
 16E0 0EDA              xcall _sel2_menu
 16E2                   .dbline 1013
 16E2           ;                                               sel2_menu_work();
 16E2 23DA              xcall _sel2_menu_work
 16E4                   .dbline 1014
 16E4           ;                                       }
 16E4 03C0              xjmp L347
 16E6           L363:
 16E6                   .dbline 1016
 16E6           ;                                       else
 16E6           ;                                       {
 16E6                   .dbline 1017
 16E6           ;                                               menu_sel = 0;
 16E6 4427              clr R20
 16E8                   .dbline 1018
 16E8           ;                                               sel3_menu();
 16E8 49DE              xcall _sel3_menu
 16EA                   .dbline 1019
 16EA           ;                                               sel3_menu_work();
 16EA 76DE              xcall _sel3_menu_work
 16EC                   .dbline 1020
 16EC           ;                                       }
 16EC                   .dbline 1021
 16EC           ;                                       break;
 16EC           L346:
 16EC           L347:
 16EC                   .dbline 1023
 16EC           ;                       }
 16EC           ;               }
 16EC           L344:
 16EC                   .dbline 1024
 16EC           ;       }
 16EC           L342:
 16EC                   .dbline 978
 16EC A1CF              xjmp L341
 16EE           X195:
 16EE                   .dbline -2
 16EE           L340:
 16EE                   .dbline 0 ; func end
 16EE 2296              adiw R28,2
 16F0 0895              ret
 16F2                   .dbsym r menu_sel 20 c
 16F2                   .dbsym r i 22 c
 16F2                   .dbend
                        .area data(ram, con, rel)
 0050                   .dbfile C:\Users\ASUS\Desktop\AircraftWar\LCD.c
 0050           L277:
 0050                   .blkb 12
                        .area idata
 0050 202020204279204368656E00  .byte 32,32,32,32,'B,'y,32,'C,'h,'e,'n,0
                        .area data(ram, con, rel)
 005C                   .dbfile C:\Users\ASUS\Desktop\AircraftWar\LCD.c
 005C           L276:
 005C                   .blkb 14
                        .area idata
 005C 20616E796B6579746F706C617900      .byte 32,'a,'n,'y,'k,'e,'y,'t,'o,'p,'l,'a,'y,0
                        .area data(ram, con, rel)
 006A                   .dbfile C:\Users\ASUS\Desktop\AircraftWar\LCD.c
 006A           L275:
 006A                   .blkb 8
                        .area idata
 006A 2020202020202D00  .byte 32,32,32,32,32,32,45,0
                        .area data(ram, con, rel)
 0072                   .dbfile C:\Users\ASUS\Desktop\AircraftWar\LCD.c
 0072           L274:
 0072                   .blkb 9
                        .area idata
 0072 20202020205E205E00        .byte 32,32,32,32,32,94,32,94,0
                        .area data(ram, con, rel)
 007B                   .dbfile C:\Users\ASUS\Desktop\AircraftWar\LCD.c
 007B           L273:
 007B                   .blkb 14
                        .area idata
 007B 2020416972637261667457617200      .byte 32,32,'A,'i,'r,'c,'r,'a,'f,'t,'W,'a,'r,0
                        .area data(ram, con, rel)
 0089                   .dbfile C:\Users\ASUS\Desktop\AircraftWar\LCD.c
 0089           L189:
 0089                   .blkb 11
                        .area idata
 0089 C3CED6D0B5C4BBE9C0F100    .byte 195,206,214,208,181,196,187,233,192,241,0
                        .area data(ram, con, rel)
 0094                   .dbfile C:\Users\ASUS\Desktop\AircraftWar\LCD.c
 0094           L173:
 0094                   .blkb 9
                        .area idata
 0094 D0C7D6AECBF9D4DA00        .byte 208,199,214,174,203,249,212,218,0
                        .area data(ram, con, rel)
 009D                   .dbfile C:\Users\ASUS\Desktop\AircraftWar\LCD.c
 009D           L172:
 009D                   .blkb 11
                        .area idata
 009D D5FDD4DAB2A5B7C5A3BA00    .byte 213,253,212,218,178,165,183,197,163,186,0
                        .area data(ram, con, rel)
 00A8                   .dbfile C:\Users\ASUS\Desktop\AircraftWar\LCD.c
 00A8           L127:
 00A8                   .blkb 7
                        .area idata
 00A8 BCC6CAB1C6F700    .byte 188,198,202,177,198,247,0
                        .area data(ram, con, rel)
 00AF                   .dbfile C:\Users\ASUS\Desktop\AircraftWar\LCD.c
 00AF           L125:
 00AF                   .blkb 3
                        .area idata
 00AF A1B700            .byte 161,183,0
                        .area data(ram, con, rel)
 00B2                   .dbfile C:\Users\ASUS\Desktop\AircraftWar\LCD.c
 00B2           L124:
 00B2                   .blkb 9
                        .area idata
 00B2 C8FDA1A2D3CECFB700        .byte 200,253,161,162,211,206,207,183,0
                        .area data(ram, con, rel)
 00BB                   .dbfile C:\Users\ASUS\Desktop\AircraftWar\LCD.c
 00BB           L123:
 00BB                   .blkb 11
                        .area idata
 00BB B6FEA1A2D2F4C0D6BAD000    .byte 182,254,161,162,210,244,192,214,186,208,0
                        .area data(ram, con, rel)
 00C6                   .dbfile C:\Users\ASUS\Desktop\AircraftWar\LCD.c
 00C6           L122:
 00C6                   .blkb 11
                        .area idata
 00C6 D2BBA1A2BCC6CAB1C6F700    .byte 210,187,161,162,188,198,202,177,198,247,0
                        .area data(ram, con, rel)
 00D1                   .dbfile C:\Users\ASUS\Desktop\AircraftWar\LCD.c
 00D1           L120:
 00D1                   .blkb 11
                        .area idata
 00D1 2020202057755775577500    .byte 32,32,32,32,'W,'u,'W,'u,'W,'u,0
                        .area data(ram, con, rel)
 00DC                   .dbfile C:\Users\ASUS\Desktop\AircraftWar\LCD.c
 00DC           L119:
 00DC                   .blkb 11
                        .area idata
 00DC 202020207C202020207C00    .byte 32,32,32,32,124,32,32,32,32,124,0
                        .area data(ram, con, rel)
 00E7                   .dbfile C:\Users\ASUS\Desktop\AircraftWar\LCD.c
 00E7           L118:
 00E7                   .blkb 12
                        .area idata
 00E7 2020202D2D2D20202D2D2D00  .byte 32,32,32,45,45,45,32,32,45,45,45,0
                        .area data(ram, con, rel)
 00F3                   .dbfile C:\Users\ASUS\Desktop\AircraftWar\LCD.c
 00F3           L117:
 00F3                   .blkb 14
                        .area idata
 00F3 20596F7520617265206469652100      .byte 32,'Y,'o,'u,32,'a,'r,'e,32,'d,'i,'e,33,0
                        .area data(ram, con, rel)
 0101                   .dbfile C:\Users\ASUS\Desktop\AircraftWar\LCD.c
                        .area lit(rom, con, rel)
 044C           L12:
 044C FAED6B3F          .word 0xedfa,0x3f6b
 0450           ; }
